
AT.elf:     file format elf32-littleriscv
AT.elf
architecture: riscv:rv32, flags 0x00000112:
EXEC_P, HAS_SYMS, D_PAGED
start address 0x00000000

Program Header:
    LOAD off    0x00001000 vaddr 0x00000000 paddr 0x00000000 align 2**12
         filesz 0x00000004 memsz 0x00000004 flags r-x
    LOAD off    0x00002000 vaddr 0x20000000 paddr 0x00000004 align 2**12
         filesz 0x000008d8 memsz 0x000008d8 flags r-x
    LOAD off    0x000028dc vaddr 0x000008dc paddr 0x000008dc align 2**12
         filesz 0x00000868 memsz 0x00000868 flags r-x
    LOAD off    0x000038d8 vaddr 0x200008d8 paddr 0x00001144 align 2**12
         filesz 0x00000000 memsz 0x000001b4 flags rw-

Sections:
Idx Name            Size      VMA       LMA       File off  Algn  Flags
  0 .init           00000004  00000000  00000000  00001000  2**1  CONTENTS, ALLOC, LOAD, READONLY, CODE
  1 .highcodelalign 00000000  00000004  00000004  00003144  2**0  CONTENTS
  2 .highcode       000008d8  20000000  00000004  00002000  2**1  CONTENTS, ALLOC, LOAD, READONLY, CODE
  3 .text           00000868  000008dc  000008dc  000028dc  2**2  CONTENTS, ALLOC, LOAD, READONLY, CODE
  4 .fini           00000000  00001144  00001144  00003144  2**0  CONTENTS, ALLOC, LOAD, CODE
  5 .dalign         00000000  200008d8  200008d8  00003144  2**0  CONTENTS
  6 .dlalign        00000000  00001144  00001144  00003144  2**0  CONTENTS
  7 .data           00000000  200008d8  200008d8  00003144  2**0  CONTENTS, ALLOC, LOAD, DATA
  8 .bss            000001b4  200008d8  00001144  000038d8  2**2  ALLOC
  9 .stack          00000000  20006800  20006800  00003144  2**0  CONTENTS
 10 .debug_info     00005978  00000000  00000000  00003144  2**0  CONTENTS, READONLY, DEBUGGING
 11 .debug_abbrev   00000f1b  00000000  00000000  00008abc  2**0  CONTENTS, READONLY, DEBUGGING
 12 .debug_loc      00000ce3  00000000  00000000  000099d7  2**0  CONTENTS, READONLY, DEBUGGING
 13 .debug_aranges  000001e0  00000000  00000000  0000a6c0  2**3  CONTENTS, READONLY, DEBUGGING
 14 .debug_ranges   000001a0  00000000  00000000  0000a8a0  2**3  CONTENTS, READONLY, DEBUGGING
 15 .debug_line     0000305d  00000000  00000000  0000aa40  2**0  CONTENTS, READONLY, DEBUGGING
 16 .debug_str      00000f93  00000000  00000000  0000da9d  2**0  CONTENTS, READONLY, DEBUGGING
 17 .comment        00000033  00000000  00000000  0000ea30  2**0  CONTENTS, READONLY
 18 .debug_frame    000003a0  00000000  00000000  0000ea64  2**2  CONTENTS, READONLY, DEBUGGING
 19 .stabstr        00000117  00000000  00000000  0000ee04  2**0  CONTENTS, READONLY, DEBUGGING
SYMBOL TABLE:
00000000 l    d  .init	00000000 .init
00000004 l    d  .highcodelalign	00000000 .highcodelalign
20000000 l    d  .highcode	00000000 .highcode
000008dc l    d  .text	00000000 .text
00001144 l    d  .fini	00000000 .fini
200008d8 l    d  .dalign	00000000 .dalign
00001144 l    d  .dlalign	00000000 .dlalign
200008d8 l    d  .data	00000000 .data
200008d8 l    d  .bss	00000000 .bss
20006800 l    d  .stack	00000000 .stack
00000000 l    d  .debug_info	00000000 .debug_info
00000000 l    d  .debug_abbrev	00000000 .debug_abbrev
00000000 l    d  .debug_loc	00000000 .debug_loc
00000000 l    d  .debug_aranges	00000000 .debug_aranges
00000000 l    d  .debug_ranges	00000000 .debug_ranges
00000000 l    d  .debug_line	00000000 .debug_line
00000000 l    d  .debug_str	00000000 .debug_str
00000000 l    d  .comment	00000000 .comment
00000000 l    d  .debug_frame	00000000 .debug_frame
00000000 l    d  .stabstr	00000000 .stabstr
00000000 l    df *ABS*	00000000 ./Startup/startup_CH592.o
20000000 l       .highcode	00000000 _vector_base
00000000 l    df *ABS*	00000000 CH59x_sys.c
00000000 l    df *ABS*	00000000 ISP583.c
200004c4 l       .highcode	00000000 .loop18
200004d2 l       .highcode	00000000 .loop29
200004e0 l       .highcode	00000000 .loop40
2000076c l       .highcode	00000000 .loop402
00000000 l    df *ABS*	00000000 Main.c
00000000 l    df *ABS*	00000000 CH59x_gpio.c
00000000 l    df *ABS*	00000000 CH59x_uart1.c
00000000 l    df *ABS*	00000000 CH59x_uart3.c
00000000 l    df *ABS*	00000000 memcpy.c
00000000 l    df *ABS*	00000000 strlen.c
00000000 l    df *ABS*	00000000 close.c
00000e6e g     F .text	00000028 UART1_SendString
00000ec0 g     F .text	00000030 UART3_BaudRateCfg
200004e0 g     F .highcode	0000000e FLASH_ROM_OUT
00000ef0 g     F .text	00000032 UART3_DefInit
200010d8 g       .data	00000000 __global_pointer$
2000047c g     F .highcode	0000000e mDelayuS
200003aa  w    F .highcode	000000d2 HardFault_Handler
00000a8c g     F .text	000000fe connect
20000090  w      .highcode	00000000 GPIOB_IRQHandler
20000090  w      .highcode	00000000 GPIOA_IRQHandler
20000090  w      .highcode	00000000 SysTick_Handler
00000e96 g     F .text	0000002a UART1_RecvString
20000a74 g     O .bss	00000015 uart1msg
20000090  w      .highcode	00000000 NMI_Handler
00000c1c g     F .text	0000008e UART1_IRQHandler
200008d8 g       .bss	00000000 _sbss
200004d2 g     F .highcode	0000000e FLASH_ROM_IN
20000090  w      .highcode	00000000 UART0_IRQHandler
00000fb8 g     F .text	000000b6 memcpy
00000a36 g     F .text	00000056 is_last_at_res_right
00000e44 g     F .text	0000002a UART1_INTCfg
00000004 g       .init	00000000 _einit
20000090  w      .highcode	00000000 BB_IRQHandler
2000056e g     F .highcode	0000036a FLASH_EEPROM_CMD
20000090  w      .highcode	00000000 Break_Point_Handler
00000f8e g     F .text	0000002a UART3_RecvString
00000e2a g     F .text	0000001a UART1_ByteTrigCfg
20000090  w      .highcode	00000000 TMR0_IRQHandler
200004b2 g     F .highcode	00000012 FLASH_ROM_BEG
2000048a g     F .highcode	00000028 mDelaymS
20000090  w      .highcode	00000000 Ecall_M_Mode_Handler
200004ee g     F .highcode	00000048 FLASH_ROM_ADDR
20000090  w      .highcode	00000000 RTC_IRQHandler
20000a8c g       .bss	00000000 _ebss
00000f3c g     F .text	0000002a UART3_INTCfg
00000df8 g     F .text	00000032 UART1_DefInit
200008d8 g     O .bss	00000001 len0
20000536 g     F .highcode	00000038 FLASH_ROM_WAIT
20000a8c g       .bss	00000000 end
20000090  w      .highcode	00000000 UART2_IRQHandler
20000090  w      .highcode	00000000 PWMX_IRQHandler
00000f22 g     F .text	0000001a UART3_ByteTrigCfg
00000000 g       .init	00000000 _start
20000090  w      .highcode	00000000 ADC_IRQHandler
20000000 g       .highcode	00000000 _highcode_vma_start
20000090  w      .highcode	00000000 TMR2_IRQHandler
200008dc g     O .bss	00000004 IRQ_STA
200008d8 g       .data	00000000 _data_vma
20000092 g     F .highcode	0000029a SetSysClock
20000090  w      .highcode	00000000 USB_IRQHandler
00000f66 g     F .text	00000028 UART3_SendString
20000090  w      .highcode	00000000 I2C_IRQHandler
0000098e g     F .text	000000a8 memset
00000b8a g     F .text	00000092 main
00000004 g       .highcodelalign	00000000 _highcode_lma
20000090  w      .highcode	00000000 LLE_IRQHandler
00000000 g       .init	00000000 _sinit
20000090  w      .highcode	00000000 WDOG_BAT_IRQHandler
20000090  w      .highcode	00000000 Ecall_U_Mode_Handler
200008e0 g     O .bss	000000c8 RxBuff
20000090  w      .highcode	00000000 TMR3_IRQHandler
20006800 g       .stack	00000000 _eusrstack
20000090  w      .highcode	00000000 SW_Handler
200008d9 g     O .bss	00000001 nowprt
00000ce2 g     F .text	000000a6 GPIOA_ModeCfg
00000d88 g     F .text	00000040 GetSysClock
200008d8 g       .data	00000000 _edata
20000090  w      .highcode	00000000 SPI0_IRQHandler
200008d8 g       .highcode	00000000 _highcode_vma_end
00001144 g       .dlalign	00000000 _data_lma
000008dc  w      .text	00000000 handle_reset
0000106e g     F .text	00000012 strlen
00000caa g     F .text	00000038 UART3_IRQHandler
200009a8 g     O .bss	000000c9 mainmsg
200004c4 g     F .highcode	0000000e FLASH_ROM_END
20000090  w      .highcode	00000000 TMR1_IRQHandler
2000032c g     F .highcode	0000007e SYS_ResetExecute
00000dc8 g     F .text	00000030 UART1_BaudRateCfg



Disassembly of section .init:

00000000 <_sinit>:
_start():
C:\MRS_DATA\workspace\AT\obj/../Startup/startup_CH592.S:17

	.section	.init,"ax",@progbits
	.global	_start
	.align	1
_start:
	j	handle_reset
   0:	0dd0006f          	j	8dc <handle_reset>

Disassembly of section .highcode:

20000000 <_highcode_vma_start>:
	...
_vector_base():
20000008:	0090                	addi	a2,sp,64
2000000a:	2000                	fld	fs0,0(s0)
2000000c:	03aa                	slli	t2,t2,0xa
2000000e:	2000                	fld	fs0,0(s0)
20000010:	bda9                	j	1ffffe6a <_data_lma+0x1fffed26>
20000012:	f5f9                	bnez	a1,1fffffe0 <_data_lma+0x1fffee9c>
20000014:	0090                	addi	a2,sp,64
20000016:	2000                	fld	fs0,0(s0)
	...
20000020:	0090                	addi	a2,sp,64
20000022:	2000                	fld	fs0,0(s0)
20000024:	0090                	addi	a2,sp,64
20000026:	2000                	fld	fs0,0(s0)
	...
20000030:	0090                	addi	a2,sp,64
20000032:	2000                	fld	fs0,0(s0)
20000034:	0000                	unimp
20000036:	0000                	unimp
20000038:	0090                	addi	a2,sp,64
2000003a:	2000                	fld	fs0,0(s0)
2000003c:	0000                	unimp
2000003e:	0000                	unimp
20000040:	0090                	addi	a2,sp,64
20000042:	2000                	fld	fs0,0(s0)
20000044:	0090                	addi	a2,sp,64
20000046:	2000                	fld	fs0,0(s0)
20000048:	0090                	addi	a2,sp,64
2000004a:	2000                	fld	fs0,0(s0)
2000004c:	0090                	addi	a2,sp,64
2000004e:	2000                	fld	fs0,0(s0)
20000050:	0090                	addi	a2,sp,64
20000052:	2000                	fld	fs0,0(s0)
20000054:	0090                	addi	a2,sp,64
20000056:	2000                	fld	fs0,0(s0)
20000058:	0090                	addi	a2,sp,64
2000005a:	2000                	fld	fs0,0(s0)
2000005c:	0000                	unimp
2000005e:	0000                	unimp
20000060:	0090                	addi	a2,sp,64
20000062:	2000                	fld	fs0,0(s0)
20000064:	0090                	addi	a2,sp,64
20000066:	2000                	fld	fs0,0(s0)
20000068:	0090                	addi	a2,sp,64
2000006a:	2000                	fld	fs0,0(s0)
2000006c:	0c1c                	addi	a5,sp,528
2000006e:	0000                	unimp
20000070:	0090                	addi	a2,sp,64
20000072:	2000                	fld	fs0,0(s0)
20000074:	0090                	addi	a2,sp,64
20000076:	2000                	fld	fs0,0(s0)
20000078:	0090                	addi	a2,sp,64
2000007a:	2000                	fld	fs0,0(s0)
2000007c:	0090                	addi	a2,sp,64
2000007e:	2000                	fld	fs0,0(s0)
20000080:	0090                	addi	a2,sp,64
20000082:	2000                	fld	fs0,0(s0)
20000084:	0090                	addi	a2,sp,64
20000086:	2000                	fld	fs0,0(s0)
20000088:	0caa                	slli	s9,s9,0xa
2000008a:	0000                	unimp
2000008c:	0090                	addi	a2,sp,64
2000008e:	2000                	fld	fs0,0(s0)

20000090 <ADC_IRQHandler>:
GPIOB_IRQHandler():
C:\MRS_DATA\workspace\AT\obj/../Startup/startup_CH592.S:119
TMR3_IRQHandler:
UART2_IRQHandler:
UART3_IRQHandler:
WDOG_BAT_IRQHandler: 
1:  
	j 1b
20000090:	a001                	j	20000090 <ADC_IRQHandler>

20000092 <SetSysClock>:
sys_safe_access_enable():
C:\MRS_DATA\workspace\AT\StdPeriphDriver\inc/CH59x_sys.h:182
 * within the valid period. The safe mode will be automatically 
 * terminated after the above validity period is exceeded.
 */
 __attribute__((always_inline)) static inline void sys_safe_access_enable(void)
{
    if(read_csr(0x800)&0x08)
20000092:	80002773          	csrr	a4,0x800
20000096:	8b21                	andi	a4,a4,8
20000098:	00001797          	auipc	a5,0x1
2000009c:	84478793          	addi	a5,a5,-1980 # 200008dc <IRQ_STA>
200000a0:	cb19                	beqz	a4,200000b6 <SetSysClock+0x24>
C:\MRS_DATA\workspace\AT\StdPeriphDriver\inc/CH59x_sys.h:184
    {
        IRQ_STA = read_csr(0x800);
200000a2:	80002773          	csrr	a4,0x800
200000a6:	00001697          	auipc	a3,0x1
200000aa:	82e6ab23          	sw	a4,-1994(a3) # 200008dc <IRQ_STA>
C:\MRS_DATA\workspace\AT\StdPeriphDriver\inc/CH59x_sys.h:185
        write_csr(0x800, (IRQ_STA&(~0x08)));
200000ae:	4398                	lw	a4,0(a5)
200000b0:	9b5d                	andi	a4,a4,-9
200000b2:	80071073          	csrw	0x800,a4
C:\MRS_DATA\workspace\AT\StdPeriphDriver\inc/CH59x_sys.h:187
    }
    SAFEOPERATE;
200000b6:	0001                	nop
200000b8:	0001                	nop
C:\MRS_DATA\workspace\AT\StdPeriphDriver\inc/CH59x_sys.h:188
    R8_SAFE_ACCESS_SIG = SAFE_ACCESS_SIG1;
200000ba:	40001737          	lui	a4,0x40001
200000be:	05700693          	li	a3,87
200000c2:	04d70023          	sb	a3,64(a4) # 40001040 <_eusrstack+0x1fffa840>
C:\MRS_DATA\workspace\AT\StdPeriphDriver\inc/CH59x_sys.h:189
    R8_SAFE_ACCESS_SIG = SAFE_ACCESS_SIG2;
200000c6:	fa800693          	li	a3,-88
200000ca:	04d70023          	sb	a3,64(a4)
C:\MRS_DATA\workspace\AT\StdPeriphDriver\inc/CH59x_sys.h:190
    SAFEOPERATE;
200000ce:	0001                	nop
200000d0:	0001                	nop
SetSysClock():
C:\MRS_DATA\workspace\AT\obj/../StdPeriphDriver/CH59x_sys.c:29
 */
__HIGH_CODE
void SetSysClock(SYS_CLKTypeDef sc)
{
    sys_safe_access_enable();
    R8_PLL_CONFIG &= ~(1 << 5); //
200000d2:	04b74683          	lbu	a3,75(a4)
200000d6:	0df6f693          	andi	a3,a3,223
200000da:	04d705a3          	sb	a3,75(a4)
sys_safe_access_disable():
C:\MRS_DATA\workspace\AT\StdPeriphDriver\inc/CH59x_sys.h:195
}

__attribute__((always_inline)) static inline void sys_safe_access_disable(void)
{
    R8_SAFE_ACCESS_SIG = 0;
200000de:	04070023          	sb	zero,64(a4)
C:\MRS_DATA\workspace\AT\StdPeriphDriver\inc/CH59x_sys.h:196
    write_csr(0x800, read_csr(0x800)|(IRQ_STA&0x08));
200000e2:	800026f3          	csrr	a3,0x800
200000e6:	4398                	lw	a4,0(a5)
200000e8:	8b21                	andi	a4,a4,8
200000ea:	8f55                	or	a4,a4,a3
200000ec:	80071073          	csrw	0x800,a4
C:\MRS_DATA\workspace\AT\StdPeriphDriver\inc/CH59x_sys.h:197
    IRQ_STA = 0;
200000f0:	00000717          	auipc	a4,0x0
200000f4:	7e072623          	sw	zero,2028(a4) # 200008dc <IRQ_STA>
C:\MRS_DATA\workspace\AT\StdPeriphDriver\inc/CH59x_sys.h:198
    SAFEOPERATE;
200000f8:	0001                	nop
200000fa:	0001                	nop
SetSysClock():
C:\MRS_DATA\workspace\AT\obj/../StdPeriphDriver/CH59x_sys.c:31
    sys_safe_access_disable();
    if(sc & 0x20)  // HSE div
200000fc:	02057713          	andi	a4,a0,32
20000100:	12070b63          	beqz	a4,20000236 <SetSysClock+0x1a4>
sys_safe_access_enable():
C:\MRS_DATA\workspace\AT\StdPeriphDriver\inc/CH59x_sys.h:182
    if(read_csr(0x800)&0x08)
20000104:	80002773          	csrr	a4,0x800
20000108:	8b21                	andi	a4,a4,8
2000010a:	cb19                	beqz	a4,20000120 <SetSysClock+0x8e>
C:\MRS_DATA\workspace\AT\StdPeriphDriver\inc/CH59x_sys.h:184
        IRQ_STA = read_csr(0x800);
2000010c:	80002773          	csrr	a4,0x800
20000110:	00000697          	auipc	a3,0x0
20000114:	7ce6a623          	sw	a4,1996(a3) # 200008dc <IRQ_STA>
C:\MRS_DATA\workspace\AT\StdPeriphDriver\inc/CH59x_sys.h:185
        write_csr(0x800, (IRQ_STA&(~0x08)));
20000118:	4398                	lw	a4,0(a5)
2000011a:	9b5d                	andi	a4,a4,-9
2000011c:	80071073          	csrw	0x800,a4
C:\MRS_DATA\workspace\AT\StdPeriphDriver\inc/CH59x_sys.h:187
    SAFEOPERATE;
20000120:	0001                	nop
20000122:	0001                	nop
C:\MRS_DATA\workspace\AT\StdPeriphDriver\inc/CH59x_sys.h:188
    R8_SAFE_ACCESS_SIG = SAFE_ACCESS_SIG1;
20000124:	40001737          	lui	a4,0x40001
20000128:	05700693          	li	a3,87
2000012c:	04d70023          	sb	a3,64(a4) # 40001040 <_eusrstack+0x1fffa840>
C:\MRS_DATA\workspace\AT\StdPeriphDriver\inc/CH59x_sys.h:189
    R8_SAFE_ACCESS_SIG = SAFE_ACCESS_SIG2;
20000130:	fa800693          	li	a3,-88
20000134:	04d70023          	sb	a3,64(a4)
C:\MRS_DATA\workspace\AT\StdPeriphDriver\inc/CH59x_sys.h:190
    SAFEOPERATE;
20000138:	0001                	nop
2000013a:	0001                	nop
SetSysClock():
C:\MRS_DATA\workspace\AT\obj/../StdPeriphDriver/CH59x_sys.c:34
    {
        sys_safe_access_enable();
        R32_CLK_SYS_CFG = (0 << 6) | (sc & 0x1f) | RB_TX_32M_PWR_EN | RB_PLL_PWR_EN;
2000013c:	001406b7          	lui	a3,0x140
20000140:	897d                	andi	a0,a0,31
20000142:	8d55                	or	a0,a0,a3
20000144:	c708                	sw	a0,8(a4)
C:\MRS_DATA\workspace\AT\obj/../StdPeriphDriver/CH59x_sys.c:35
        __nop();
20000146:	0001                	nop
C:\MRS_DATA\workspace\AT\obj/../StdPeriphDriver/CH59x_sys.c:36
        __nop();
20000148:	0001                	nop
C:\MRS_DATA\workspace\AT\obj/../StdPeriphDriver/CH59x_sys.c:37
        __nop();
2000014a:	0001                	nop
C:\MRS_DATA\workspace\AT\obj/../StdPeriphDriver/CH59x_sys.c:38
        __nop();
2000014c:	0001                	nop
sys_safe_access_disable():
C:\MRS_DATA\workspace\AT\StdPeriphDriver\inc/CH59x_sys.h:195
    R8_SAFE_ACCESS_SIG = 0;
2000014e:	04070023          	sb	zero,64(a4)
C:\MRS_DATA\workspace\AT\StdPeriphDriver\inc/CH59x_sys.h:196
    write_csr(0x800, read_csr(0x800)|(IRQ_STA&0x08));
20000152:	800026f3          	csrr	a3,0x800
20000156:	4398                	lw	a4,0(a5)
20000158:	8b21                	andi	a4,a4,8
2000015a:	8f55                	or	a4,a4,a3
2000015c:	80071073          	csrw	0x800,a4
C:\MRS_DATA\workspace\AT\StdPeriphDriver\inc/CH59x_sys.h:197
    IRQ_STA = 0;
20000160:	00000717          	auipc	a4,0x0
20000164:	76072e23          	sw	zero,1916(a4) # 200008dc <IRQ_STA>
C:\MRS_DATA\workspace\AT\StdPeriphDriver\inc/CH59x_sys.h:198
    SAFEOPERATE;
20000168:	0001                	nop
2000016a:	0001                	nop
sys_safe_access_enable():
C:\MRS_DATA\workspace\AT\StdPeriphDriver\inc/CH59x_sys.h:182
    if(read_csr(0x800)&0x08)
2000016c:	80002773          	csrr	a4,0x800
20000170:	8b21                	andi	a4,a4,8
20000172:	cb19                	beqz	a4,20000188 <SetSysClock+0xf6>
C:\MRS_DATA\workspace\AT\StdPeriphDriver\inc/CH59x_sys.h:184
        IRQ_STA = read_csr(0x800);
20000174:	80002773          	csrr	a4,0x800
20000178:	00000697          	auipc	a3,0x0
2000017c:	76e6a223          	sw	a4,1892(a3) # 200008dc <IRQ_STA>
C:\MRS_DATA\workspace\AT\StdPeriphDriver\inc/CH59x_sys.h:185
        write_csr(0x800, (IRQ_STA&(~0x08)));
20000180:	4398                	lw	a4,0(a5)
20000182:	9b5d                	andi	a4,a4,-9
20000184:	80071073          	csrw	0x800,a4
C:\MRS_DATA\workspace\AT\StdPeriphDriver\inc/CH59x_sys.h:187
    SAFEOPERATE;
20000188:	0001                	nop
2000018a:	0001                	nop
C:\MRS_DATA\workspace\AT\StdPeriphDriver\inc/CH59x_sys.h:188
    R8_SAFE_ACCESS_SIG = SAFE_ACCESS_SIG1;
2000018c:	40001737          	lui	a4,0x40001
20000190:	05700693          	li	a3,87
20000194:	04d70023          	sb	a3,64(a4) # 40001040 <_eusrstack+0x1fffa840>
C:\MRS_DATA\workspace\AT\StdPeriphDriver\inc/CH59x_sys.h:189
    R8_SAFE_ACCESS_SIG = SAFE_ACCESS_SIG2;
20000198:	fa800693          	li	a3,-88
2000019c:	04d70023          	sb	a3,64(a4)
C:\MRS_DATA\workspace\AT\StdPeriphDriver\inc/CH59x_sys.h:190
    SAFEOPERATE;
200001a0:	0001                	nop
200001a2:	0001                	nop
SetSysClock():
C:\MRS_DATA\workspace\AT\obj/../StdPeriphDriver/CH59x_sys.c:41
        sys_safe_access_disable();
        sys_safe_access_enable();
        SAFEOPERATE;
200001a4:	0001                	nop
200001a6:	0001                	nop
C:\MRS_DATA\workspace\AT\obj/../StdPeriphDriver/CH59x_sys.c:42
        R8_FLASH_CFG = 0X51;
200001a8:	400026b7          	lui	a3,0x40002
200001ac:	05100613          	li	a2,81
C:\MRS_DATA\workspace\AT\obj/../StdPeriphDriver/CH59x_sys.c:56
        __nop();
        __nop();
        __nop();
        sys_safe_access_disable();
        sys_safe_access_enable();
        R8_FLASH_CFG = 0X52;
200001b0:	80c683a3          	sb	a2,-2041(a3) # 40001807 <_eusrstack+0x1fffb007>
sys_safe_access_disable():
C:\MRS_DATA\workspace\AT\StdPeriphDriver\inc/CH59x_sys.h:195
    R8_SAFE_ACCESS_SIG = 0;
200001b4:	04070023          	sb	zero,64(a4)
C:\MRS_DATA\workspace\AT\StdPeriphDriver\inc/CH59x_sys.h:196
    write_csr(0x800, read_csr(0x800)|(IRQ_STA&0x08));
200001b8:	800026f3          	csrr	a3,0x800
200001bc:	4398                	lw	a4,0(a5)
200001be:	8b21                	andi	a4,a4,8
200001c0:	8f55                	or	a4,a4,a3
200001c2:	80071073          	csrw	0x800,a4
C:\MRS_DATA\workspace\AT\StdPeriphDriver\inc/CH59x_sys.h:197
    IRQ_STA = 0;
200001c6:	00000717          	auipc	a4,0x0
200001ca:	70072b23          	sw	zero,1814(a4) # 200008dc <IRQ_STA>
C:\MRS_DATA\workspace\AT\StdPeriphDriver\inc/CH59x_sys.h:198
    SAFEOPERATE;
200001ce:	0001                	nop
200001d0:	0001                	nop
sys_safe_access_enable():
C:\MRS_DATA\workspace\AT\StdPeriphDriver\inc/CH59x_sys.h:182
    if(read_csr(0x800)&0x08)
200001d2:	80002773          	csrr	a4,0x800
200001d6:	8b21                	andi	a4,a4,8
200001d8:	cb19                	beqz	a4,200001ee <SetSysClock+0x15c>
C:\MRS_DATA\workspace\AT\StdPeriphDriver\inc/CH59x_sys.h:184
        IRQ_STA = read_csr(0x800);
200001da:	80002773          	csrr	a4,0x800
200001de:	00000697          	auipc	a3,0x0
200001e2:	6ee6af23          	sw	a4,1790(a3) # 200008dc <IRQ_STA>
C:\MRS_DATA\workspace\AT\StdPeriphDriver\inc/CH59x_sys.h:185
        write_csr(0x800, (IRQ_STA&(~0x08)));
200001e6:	4398                	lw	a4,0(a5)
200001e8:	9b5d                	andi	a4,a4,-9
200001ea:	80071073          	csrw	0x800,a4
C:\MRS_DATA\workspace\AT\StdPeriphDriver\inc/CH59x_sys.h:187
    SAFEOPERATE;
200001ee:	0001                	nop
200001f0:	0001                	nop
C:\MRS_DATA\workspace\AT\StdPeriphDriver\inc/CH59x_sys.h:188
    R8_SAFE_ACCESS_SIG = SAFE_ACCESS_SIG1;
200001f2:	40001737          	lui	a4,0x40001
200001f6:	05700693          	li	a3,87
200001fa:	04d70023          	sb	a3,64(a4) # 40001040 <_eusrstack+0x1fffa840>
C:\MRS_DATA\workspace\AT\StdPeriphDriver\inc/CH59x_sys.h:189
    R8_SAFE_ACCESS_SIG = SAFE_ACCESS_SIG2;
200001fe:	fa800693          	li	a3,-88
20000202:	04d70023          	sb	a3,64(a4)
C:\MRS_DATA\workspace\AT\StdPeriphDriver\inc/CH59x_sys.h:190
    SAFEOPERATE;
20000206:	0001                	nop
20000208:	0001                	nop
SetSysClock():
C:\MRS_DATA\workspace\AT\obj/../StdPeriphDriver/CH59x_sys.c:67
        R32_CLK_SYS_CFG |= RB_CLK_SYS_MOD;
        sys_safe_access_disable();
    }
    //更改FLASH clk的驱动能力
    sys_safe_access_enable();
    R8_PLL_CONFIG |= 1 << 7;
2000020a:	04b74683          	lbu	a3,75(a4)
2000020e:	0806e693          	ori	a3,a3,128
20000212:	04d705a3          	sb	a3,75(a4)
sys_safe_access_disable():
C:\MRS_DATA\workspace\AT\StdPeriphDriver\inc/CH59x_sys.h:195
    R8_SAFE_ACCESS_SIG = 0;
20000216:	04070023          	sb	zero,64(a4)
C:\MRS_DATA\workspace\AT\StdPeriphDriver\inc/CH59x_sys.h:196
    write_csr(0x800, read_csr(0x800)|(IRQ_STA&0x08));
2000021a:	80002773          	csrr	a4,0x800
2000021e:	439c                	lw	a5,0(a5)
20000220:	8ba1                	andi	a5,a5,8
20000222:	8fd9                	or	a5,a5,a4
20000224:	80079073          	csrw	0x800,a5
C:\MRS_DATA\workspace\AT\StdPeriphDriver\inc/CH59x_sys.h:197
    IRQ_STA = 0;
20000228:	00000797          	auipc	a5,0x0
2000022c:	6a07aa23          	sw	zero,1716(a5) # 200008dc <IRQ_STA>
C:\MRS_DATA\workspace\AT\StdPeriphDriver\inc/CH59x_sys.h:198
    SAFEOPERATE;
20000230:	0001                	nop
20000232:	0001                	nop
SetSysClock():
C:\MRS_DATA\workspace\AT\obj/../StdPeriphDriver/CH59x_sys.c:69
    sys_safe_access_disable();
}
20000234:	8082                	ret
C:\MRS_DATA\workspace\AT\obj/../StdPeriphDriver/CH59x_sys.c:46
    else if(sc & 0x40) // PLL div
20000236:	04057713          	andi	a4,a0,64
2000023a:	cb45                	beqz	a4,200002ea <SetSysClock+0x258>
sys_safe_access_enable():
C:\MRS_DATA\workspace\AT\StdPeriphDriver\inc/CH59x_sys.h:182
    if(read_csr(0x800)&0x08)
2000023c:	80002773          	csrr	a4,0x800
20000240:	8b21                	andi	a4,a4,8
20000242:	cb19                	beqz	a4,20000258 <SetSysClock+0x1c6>
C:\MRS_DATA\workspace\AT\StdPeriphDriver\inc/CH59x_sys.h:184
        IRQ_STA = read_csr(0x800);
20000244:	80002773          	csrr	a4,0x800
20000248:	00000697          	auipc	a3,0x0
2000024c:	68e6aa23          	sw	a4,1684(a3) # 200008dc <IRQ_STA>
C:\MRS_DATA\workspace\AT\StdPeriphDriver\inc/CH59x_sys.h:185
        write_csr(0x800, (IRQ_STA&(~0x08)));
20000250:	4398                	lw	a4,0(a5)
20000252:	9b5d                	andi	a4,a4,-9
20000254:	80071073          	csrw	0x800,a4
C:\MRS_DATA\workspace\AT\StdPeriphDriver\inc/CH59x_sys.h:187
    SAFEOPERATE;
20000258:	0001                	nop
2000025a:	0001                	nop
C:\MRS_DATA\workspace\AT\StdPeriphDriver\inc/CH59x_sys.h:188
    R8_SAFE_ACCESS_SIG = SAFE_ACCESS_SIG1;
2000025c:	40001737          	lui	a4,0x40001
20000260:	05700693          	li	a3,87
20000264:	04d70023          	sb	a3,64(a4) # 40001040 <_eusrstack+0x1fffa840>
C:\MRS_DATA\workspace\AT\StdPeriphDriver\inc/CH59x_sys.h:189
    R8_SAFE_ACCESS_SIG = SAFE_ACCESS_SIG2;
20000268:	fa800693          	li	a3,-88
2000026c:	04d70023          	sb	a3,64(a4)
C:\MRS_DATA\workspace\AT\StdPeriphDriver\inc/CH59x_sys.h:190
    SAFEOPERATE;
20000270:	0001                	nop
20000272:	0001                	nop
SetSysClock():
C:\MRS_DATA\workspace\AT\obj/../StdPeriphDriver/CH59x_sys.c:49
        R32_CLK_SYS_CFG = (1 << 6) | (sc & 0x1f) | RB_TX_32M_PWR_EN | RB_PLL_PWR_EN;
20000274:	001406b7          	lui	a3,0x140
20000278:	04068693          	addi	a3,a3,64 # 140040 <_data_lma+0x13eefc>
2000027c:	897d                	andi	a0,a0,31
2000027e:	8d55                	or	a0,a0,a3
20000280:	c708                	sw	a0,8(a4)
C:\MRS_DATA\workspace\AT\obj/../StdPeriphDriver/CH59x_sys.c:50
        __nop();
20000282:	0001                	nop
C:\MRS_DATA\workspace\AT\obj/../StdPeriphDriver/CH59x_sys.c:51
        __nop();
20000284:	0001                	nop
C:\MRS_DATA\workspace\AT\obj/../StdPeriphDriver/CH59x_sys.c:52
        __nop();
20000286:	0001                	nop
C:\MRS_DATA\workspace\AT\obj/../StdPeriphDriver/CH59x_sys.c:53
        __nop();
20000288:	0001                	nop
sys_safe_access_disable():
C:\MRS_DATA\workspace\AT\StdPeriphDriver\inc/CH59x_sys.h:195
    R8_SAFE_ACCESS_SIG = 0;
2000028a:	04070023          	sb	zero,64(a4)
C:\MRS_DATA\workspace\AT\StdPeriphDriver\inc/CH59x_sys.h:196
    write_csr(0x800, read_csr(0x800)|(IRQ_STA&0x08));
2000028e:	800026f3          	csrr	a3,0x800
20000292:	4398                	lw	a4,0(a5)
20000294:	8b21                	andi	a4,a4,8
20000296:	8f55                	or	a4,a4,a3
20000298:	80071073          	csrw	0x800,a4
C:\MRS_DATA\workspace\AT\StdPeriphDriver\inc/CH59x_sys.h:197
    IRQ_STA = 0;
2000029c:	00000717          	auipc	a4,0x0
200002a0:	64072023          	sw	zero,1600(a4) # 200008dc <IRQ_STA>
C:\MRS_DATA\workspace\AT\StdPeriphDriver\inc/CH59x_sys.h:198
    SAFEOPERATE;
200002a4:	0001                	nop
200002a6:	0001                	nop
sys_safe_access_enable():
C:\MRS_DATA\workspace\AT\StdPeriphDriver\inc/CH59x_sys.h:182
    if(read_csr(0x800)&0x08)
200002a8:	80002773          	csrr	a4,0x800
200002ac:	8b21                	andi	a4,a4,8
200002ae:	cb19                	beqz	a4,200002c4 <SetSysClock+0x232>
C:\MRS_DATA\workspace\AT\StdPeriphDriver\inc/CH59x_sys.h:184
        IRQ_STA = read_csr(0x800);
200002b0:	80002773          	csrr	a4,0x800
200002b4:	00000697          	auipc	a3,0x0
200002b8:	62e6a423          	sw	a4,1576(a3) # 200008dc <IRQ_STA>
C:\MRS_DATA\workspace\AT\StdPeriphDriver\inc/CH59x_sys.h:185
        write_csr(0x800, (IRQ_STA&(~0x08)));
200002bc:	4398                	lw	a4,0(a5)
200002be:	9b5d                	andi	a4,a4,-9
200002c0:	80071073          	csrw	0x800,a4
C:\MRS_DATA\workspace\AT\StdPeriphDriver\inc/CH59x_sys.h:187
    SAFEOPERATE;
200002c4:	0001                	nop
200002c6:	0001                	nop
C:\MRS_DATA\workspace\AT\StdPeriphDriver\inc/CH59x_sys.h:188
    R8_SAFE_ACCESS_SIG = SAFE_ACCESS_SIG1;
200002c8:	40001737          	lui	a4,0x40001
200002cc:	05700693          	li	a3,87
200002d0:	04d70023          	sb	a3,64(a4) # 40001040 <_eusrstack+0x1fffa840>
C:\MRS_DATA\workspace\AT\StdPeriphDriver\inc/CH59x_sys.h:189
    R8_SAFE_ACCESS_SIG = SAFE_ACCESS_SIG2;
200002d4:	fa800693          	li	a3,-88
200002d8:	04d70023          	sb	a3,64(a4)
C:\MRS_DATA\workspace\AT\StdPeriphDriver\inc/CH59x_sys.h:190
    SAFEOPERATE;
200002dc:	0001                	nop
200002de:	0001                	nop
SetSysClock():
C:\MRS_DATA\workspace\AT\obj/../StdPeriphDriver/CH59x_sys.c:56
        R8_FLASH_CFG = 0X52;
200002e0:	400026b7          	lui	a3,0x40002
200002e4:	05200613          	li	a2,82
200002e8:	b5e1                	j	200001b0 <SetSysClock+0x11e>
sys_safe_access_enable():
C:\MRS_DATA\workspace\AT\StdPeriphDriver\inc/CH59x_sys.h:182
    if(read_csr(0x800)&0x08)
200002ea:	80002773          	csrr	a4,0x800
200002ee:	8b21                	andi	a4,a4,8
200002f0:	cb19                	beqz	a4,20000306 <SetSysClock+0x274>
C:\MRS_DATA\workspace\AT\StdPeriphDriver\inc/CH59x_sys.h:184
        IRQ_STA = read_csr(0x800);
200002f2:	80002773          	csrr	a4,0x800
200002f6:	00000697          	auipc	a3,0x0
200002fa:	5ee6a323          	sw	a4,1510(a3) # 200008dc <IRQ_STA>
C:\MRS_DATA\workspace\AT\StdPeriphDriver\inc/CH59x_sys.h:185
        write_csr(0x800, (IRQ_STA&(~0x08)));
200002fe:	4398                	lw	a4,0(a5)
20000300:	9b5d                	andi	a4,a4,-9
20000302:	80071073          	csrw	0x800,a4
C:\MRS_DATA\workspace\AT\StdPeriphDriver\inc/CH59x_sys.h:187
    SAFEOPERATE;
20000306:	0001                	nop
20000308:	0001                	nop
C:\MRS_DATA\workspace\AT\StdPeriphDriver\inc/CH59x_sys.h:188
    R8_SAFE_ACCESS_SIG = SAFE_ACCESS_SIG1;
2000030a:	40001737          	lui	a4,0x40001
2000030e:	05700693          	li	a3,87
20000312:	04d70023          	sb	a3,64(a4) # 40001040 <_eusrstack+0x1fffa840>
C:\MRS_DATA\workspace\AT\StdPeriphDriver\inc/CH59x_sys.h:189
    R8_SAFE_ACCESS_SIG = SAFE_ACCESS_SIG2;
20000316:	fa800693          	li	a3,-88
2000031a:	04d70023          	sb	a3,64(a4)
C:\MRS_DATA\workspace\AT\StdPeriphDriver\inc/CH59x_sys.h:190
    SAFEOPERATE;
2000031e:	0001                	nop
20000320:	0001                	nop
SetSysClock():
C:\MRS_DATA\workspace\AT\obj/../StdPeriphDriver/CH59x_sys.c:62
        R32_CLK_SYS_CFG |= RB_CLK_SYS_MOD;
20000322:	4714                	lw	a3,8(a4)
20000324:	0c06e693          	ori	a3,a3,192
20000328:	c714                	sw	a3,8(a4)
2000032a:	b569                	j	200001b4 <SetSysClock+0x122>

2000032c <SYS_ResetExecute>:
SYS_ResetExecute():
C:\MRS_DATA\workspace\AT\obj/../StdPeriphDriver/CH59x_sys.c:131
 *
 * @return  none
 */
__HIGH_CODE
void SYS_ResetExecute(void)
{
2000032c:	1141                	addi	sp,sp,-16
C:\MRS_DATA\workspace\AT\obj/../StdPeriphDriver/CH59x_sys.c:132
    FLASH_ROM_SW_RESET();
2000032e:	4681                	li	a3,0
20000330:	4601                	li	a2,0
20000332:	4581                	li	a1,0
20000334:	4511                	li	a0,4
C:\MRS_DATA\workspace\AT\obj/../StdPeriphDriver/CH59x_sys.c:131
{
20000336:	c606                	sw	ra,12(sp)
C:\MRS_DATA\workspace\AT\obj/../StdPeriphDriver/CH59x_sys.c:132
    FLASH_ROM_SW_RESET();
20000338:	2c1d                	jal	2000056e <FLASH_EEPROM_CMD>
sys_safe_access_enable():
C:\MRS_DATA\workspace\AT\StdPeriphDriver\inc/CH59x_sys.h:182
    if(read_csr(0x800)&0x08)
2000033a:	800027f3          	csrr	a5,0x800
2000033e:	8ba1                	andi	a5,a5,8
20000340:	00000697          	auipc	a3,0x0
20000344:	59c68693          	addi	a3,a3,1436 # 200008dc <IRQ_STA>
20000348:	cb99                	beqz	a5,2000035e <SYS_ResetExecute+0x32>
C:\MRS_DATA\workspace\AT\StdPeriphDriver\inc/CH59x_sys.h:184
        IRQ_STA = read_csr(0x800);
2000034a:	800027f3          	csrr	a5,0x800
2000034e:	00000717          	auipc	a4,0x0
20000352:	58f72723          	sw	a5,1422(a4) # 200008dc <IRQ_STA>
C:\MRS_DATA\workspace\AT\StdPeriphDriver\inc/CH59x_sys.h:185
        write_csr(0x800, (IRQ_STA&(~0x08)));
20000356:	429c                	lw	a5,0(a3)
20000358:	9bdd                	andi	a5,a5,-9
2000035a:	80079073          	csrw	0x800,a5
C:\MRS_DATA\workspace\AT\StdPeriphDriver\inc/CH59x_sys.h:187
    SAFEOPERATE;
2000035e:	0001                	nop
20000360:	0001                	nop
C:\MRS_DATA\workspace\AT\StdPeriphDriver\inc/CH59x_sys.h:188
    R8_SAFE_ACCESS_SIG = SAFE_ACCESS_SIG1;
20000362:	400017b7          	lui	a5,0x40001
20000366:	05700713          	li	a4,87
2000036a:	04e78023          	sb	a4,64(a5) # 40001040 <_eusrstack+0x1fffa840>
C:\MRS_DATA\workspace\AT\StdPeriphDriver\inc/CH59x_sys.h:189
    R8_SAFE_ACCESS_SIG = SAFE_ACCESS_SIG2;
2000036e:	fa800713          	li	a4,-88
20000372:	04e78023          	sb	a4,64(a5)
C:\MRS_DATA\workspace\AT\StdPeriphDriver\inc/CH59x_sys.h:190
    SAFEOPERATE;
20000376:	0001                	nop
20000378:	0001                	nop
SYS_ResetExecute():
C:\MRS_DATA\workspace\AT\obj/../StdPeriphDriver/CH59x_sys.c:134
    sys_safe_access_enable();
    R8_RST_WDOG_CTRL |= RB_SOFTWARE_RESET;
2000037a:	0467c703          	lbu	a4,70(a5)
2000037e:	00176713          	ori	a4,a4,1
20000382:	04e78323          	sb	a4,70(a5)
sys_safe_access_disable():
C:\MRS_DATA\workspace\AT\StdPeriphDriver\inc/CH59x_sys.h:195
    R8_SAFE_ACCESS_SIG = 0;
20000386:	04078023          	sb	zero,64(a5)
C:\MRS_DATA\workspace\AT\StdPeriphDriver\inc/CH59x_sys.h:196
    write_csr(0x800, read_csr(0x800)|(IRQ_STA&0x08));
2000038a:	80002773          	csrr	a4,0x800
2000038e:	429c                	lw	a5,0(a3)
20000390:	8ba1                	andi	a5,a5,8
20000392:	8fd9                	or	a5,a5,a4
20000394:	80079073          	csrw	0x800,a5
C:\MRS_DATA\workspace\AT\StdPeriphDriver\inc/CH59x_sys.h:197
    IRQ_STA = 0;
20000398:	00000797          	auipc	a5,0x0
2000039c:	5407a223          	sw	zero,1348(a5) # 200008dc <IRQ_STA>
C:\MRS_DATA\workspace\AT\StdPeriphDriver\inc/CH59x_sys.h:198
    SAFEOPERATE;
200003a0:	0001                	nop
200003a2:	0001                	nop
SYS_ResetExecute():
C:\MRS_DATA\workspace\AT\obj/../StdPeriphDriver/CH59x_sys.c:136
    sys_safe_access_disable();
}
200003a4:	40b2                	lw	ra,12(sp)
200003a6:	0141                	addi	sp,sp,16
200003a8:	8082                	ret

200003aa <HardFault_Handler>:
HardFault_Handler():
C:\MRS_DATA\workspace\AT\obj/../StdPeriphDriver/CH59x_sys.c:270
__INTERRUPT
__HIGH_CODE
__attribute__((weak))
void HardFault_Handler(void)
{
    FLASH_ROM_SW_RESET();
200003aa:	4681                	li	a3,0
200003ac:	4601                	li	a2,0
200003ae:	4581                	li	a1,0
200003b0:	4511                	li	a0,4
200003b2:	2a75                	jal	2000056e <FLASH_EEPROM_CMD>
sys_safe_access_enable():
C:\MRS_DATA\workspace\AT\StdPeriphDriver\inc/CH59x_sys.h:182
    if(read_csr(0x800)&0x08)
200003b4:	800027f3          	csrr	a5,0x800
200003b8:	8ba1                	andi	a5,a5,8
200003ba:	00000717          	auipc	a4,0x0
200003be:	52270713          	addi	a4,a4,1314 # 200008dc <IRQ_STA>
200003c2:	cb99                	beqz	a5,200003d8 <HardFault_Handler+0x2e>
C:\MRS_DATA\workspace\AT\StdPeriphDriver\inc/CH59x_sys.h:184
        IRQ_STA = read_csr(0x800);
200003c4:	800027f3          	csrr	a5,0x800
200003c8:	00000697          	auipc	a3,0x0
200003cc:	50f6aa23          	sw	a5,1300(a3) # 200008dc <IRQ_STA>
C:\MRS_DATA\workspace\AT\StdPeriphDriver\inc/CH59x_sys.h:185
        write_csr(0x800, (IRQ_STA&(~0x08)));
200003d0:	431c                	lw	a5,0(a4)
200003d2:	9bdd                	andi	a5,a5,-9
200003d4:	80079073          	csrw	0x800,a5
C:\MRS_DATA\workspace\AT\StdPeriphDriver\inc/CH59x_sys.h:187
    SAFEOPERATE;
200003d8:	0001                	nop
200003da:	0001                	nop
C:\MRS_DATA\workspace\AT\StdPeriphDriver\inc/CH59x_sys.h:188
    R8_SAFE_ACCESS_SIG = SAFE_ACCESS_SIG1;
200003dc:	400017b7          	lui	a5,0x40001
200003e0:	05700693          	li	a3,87
200003e4:	04d78023          	sb	a3,64(a5) # 40001040 <_eusrstack+0x1fffa840>
C:\MRS_DATA\workspace\AT\StdPeriphDriver\inc/CH59x_sys.h:189
    R8_SAFE_ACCESS_SIG = SAFE_ACCESS_SIG2;
200003e8:	fa800693          	li	a3,-88
200003ec:	04d78023          	sb	a3,64(a5)
C:\MRS_DATA\workspace\AT\StdPeriphDriver\inc/CH59x_sys.h:190
    SAFEOPERATE;
200003f0:	0001                	nop
200003f2:	0001                	nop
HardFault_Handler():
C:\MRS_DATA\workspace\AT\obj/../StdPeriphDriver/CH59x_sys.c:272
    sys_safe_access_enable();
    R16_INT32K_TUNE = 0xFFFF;
200003f4:	56fd                	li	a3,-1
200003f6:	02d79623          	sh	a3,44(a5)
sys_safe_access_disable():
C:\MRS_DATA\workspace\AT\StdPeriphDriver\inc/CH59x_sys.h:195
    R8_SAFE_ACCESS_SIG = 0;
200003fa:	04078023          	sb	zero,64(a5)
C:\MRS_DATA\workspace\AT\StdPeriphDriver\inc/CH59x_sys.h:196
    write_csr(0x800, read_csr(0x800)|(IRQ_STA&0x08));
200003fe:	800026f3          	csrr	a3,0x800
20000402:	431c                	lw	a5,0(a4)
20000404:	8ba1                	andi	a5,a5,8
20000406:	8fd5                	or	a5,a5,a3
20000408:	80079073          	csrw	0x800,a5
C:\MRS_DATA\workspace\AT\StdPeriphDriver\inc/CH59x_sys.h:197
    IRQ_STA = 0;
2000040c:	00000797          	auipc	a5,0x0
20000410:	4c07a823          	sw	zero,1232(a5) # 200008dc <IRQ_STA>
C:\MRS_DATA\workspace\AT\StdPeriphDriver\inc/CH59x_sys.h:198
    SAFEOPERATE;
20000414:	0001                	nop
20000416:	0001                	nop
sys_safe_access_enable():
C:\MRS_DATA\workspace\AT\StdPeriphDriver\inc/CH59x_sys.h:182
    if(read_csr(0x800)&0x08)
20000418:	800027f3          	csrr	a5,0x800
2000041c:	8ba1                	andi	a5,a5,8
2000041e:	cb99                	beqz	a5,20000434 <HardFault_Handler+0x8a>
C:\MRS_DATA\workspace\AT\StdPeriphDriver\inc/CH59x_sys.h:184
        IRQ_STA = read_csr(0x800);
20000420:	800027f3          	csrr	a5,0x800
20000424:	00000697          	auipc	a3,0x0
20000428:	4af6ac23          	sw	a5,1208(a3) # 200008dc <IRQ_STA>
C:\MRS_DATA\workspace\AT\StdPeriphDriver\inc/CH59x_sys.h:185
        write_csr(0x800, (IRQ_STA&(~0x08)));
2000042c:	431c                	lw	a5,0(a4)
2000042e:	9bdd                	andi	a5,a5,-9
20000430:	80079073          	csrw	0x800,a5
C:\MRS_DATA\workspace\AT\StdPeriphDriver\inc/CH59x_sys.h:187
    SAFEOPERATE;
20000434:	0001                	nop
20000436:	0001                	nop
C:\MRS_DATA\workspace\AT\StdPeriphDriver\inc/CH59x_sys.h:188
    R8_SAFE_ACCESS_SIG = SAFE_ACCESS_SIG1;
20000438:	400017b7          	lui	a5,0x40001
2000043c:	05700693          	li	a3,87
20000440:	04d78023          	sb	a3,64(a5) # 40001040 <_eusrstack+0x1fffa840>
C:\MRS_DATA\workspace\AT\StdPeriphDriver\inc/CH59x_sys.h:189
    R8_SAFE_ACCESS_SIG = SAFE_ACCESS_SIG2;
20000444:	fa800693          	li	a3,-88
20000448:	04d78023          	sb	a3,64(a5)
C:\MRS_DATA\workspace\AT\StdPeriphDriver\inc/CH59x_sys.h:190
    SAFEOPERATE;
2000044c:	0001                	nop
2000044e:	0001                	nop
HardFault_Handler():
C:\MRS_DATA\workspace\AT\obj/../StdPeriphDriver/CH59x_sys.c:275
    sys_safe_access_disable();
    sys_safe_access_enable();
    R8_RST_WDOG_CTRL |= RB_SOFTWARE_RESET;
20000450:	0467c683          	lbu	a3,70(a5)
20000454:	0016e693          	ori	a3,a3,1
20000458:	04d78323          	sb	a3,70(a5)
sys_safe_access_disable():
C:\MRS_DATA\workspace\AT\StdPeriphDriver\inc/CH59x_sys.h:195
    R8_SAFE_ACCESS_SIG = 0;
2000045c:	04078023          	sb	zero,64(a5)
C:\MRS_DATA\workspace\AT\StdPeriphDriver\inc/CH59x_sys.h:196
    write_csr(0x800, read_csr(0x800)|(IRQ_STA&0x08));
20000460:	800026f3          	csrr	a3,0x800
20000464:	431c                	lw	a5,0(a4)
20000466:	8ba1                	andi	a5,a5,8
20000468:	8fd5                	or	a5,a5,a3
2000046a:	80079073          	csrw	0x800,a5
C:\MRS_DATA\workspace\AT\StdPeriphDriver\inc/CH59x_sys.h:197
    IRQ_STA = 0;
2000046e:	00000797          	auipc	a5,0x0
20000472:	4607a723          	sw	zero,1134(a5) # 200008dc <IRQ_STA>
C:\MRS_DATA\workspace\AT\StdPeriphDriver\inc/CH59x_sys.h:198
    SAFEOPERATE;
20000476:	0001                	nop
20000478:	0001                	nop
HardFault_Handler():
C:\MRS_DATA\workspace\AT\obj/../StdPeriphDriver/CH59x_sys.c:277 (discriminator 1)
    sys_safe_access_disable();
    while(1);
2000047a:	a001                	j	2000047a <HardFault_Handler+0xd0>

2000047c <mDelayuS>:
mDelayuS():
C:\MRS_DATA\workspace\AT\obj/../StdPeriphDriver/CH59x_sys.c:296
{
    uint32_t i;
#if(FREQ_SYS == 80000000)
    i = t * 20;
#elif(FREQ_SYS == 60000000)
    i = t * 15;
2000047c:	47bd                	li	a5,15
2000047e:	02f50533          	mul	a0,a0,a5
C:\MRS_DATA\workspace\AT\obj/../StdPeriphDriver/CH59x_sys.c:320 (discriminator 1)
#else
    i = t << 1;
#endif
    do
    {
        __nop();
20000482:	0001                	nop
C:\MRS_DATA\workspace\AT\obj/../StdPeriphDriver/CH59x_sys.c:321 (discriminator 1)
    } while(--i);
20000484:	157d                	addi	a0,a0,-1
20000486:	fd75                	bnez	a0,20000482 <mDelayuS+0x6>
C:\MRS_DATA\workspace\AT\obj/../StdPeriphDriver/CH59x_sys.c:322
}
20000488:	8082                	ret

2000048a <mDelaymS>:
mDelaymS():
C:\MRS_DATA\workspace\AT\obj/../StdPeriphDriver/CH59x_sys.c:335
 *
 * @return  none
 */
__HIGH_CODE
void mDelaymS(uint16_t t)
{
2000048a:	1141                	addi	sp,sp,-16
2000048c:	c422                	sw	s0,8(sp)
2000048e:	c226                	sw	s1,4(sp)
20000490:	c606                	sw	ra,12(sp)
20000492:	84aa                	mv	s1,a0
C:\MRS_DATA\workspace\AT\obj/../StdPeriphDriver/CH59x_sys.c:338
    uint16_t i;

    for(i = 0; i < t; i++)
20000494:	4401                	li	s0,0
C:\MRS_DATA\workspace\AT\obj/../StdPeriphDriver/CH59x_sys.c:338 (discriminator 1)
20000496:	00941763          	bne	s0,s1,200004a4 <mDelaymS+0x1a>
C:\MRS_DATA\workspace\AT\obj/../StdPeriphDriver/CH59x_sys.c:342
    {
        mDelayuS(1000);
    }
}
2000049a:	40b2                	lw	ra,12(sp)
2000049c:	4422                	lw	s0,8(sp)
2000049e:	4492                	lw	s1,4(sp)
200004a0:	0141                	addi	sp,sp,16
200004a2:	8082                	ret
C:\MRS_DATA\workspace\AT\obj/../StdPeriphDriver/CH59x_sys.c:338 (discriminator 3)
    for(i = 0; i < t; i++)
200004a4:	0405                	addi	s0,s0,1
C:\MRS_DATA\workspace\AT\obj/../StdPeriphDriver/CH59x_sys.c:340 (discriminator 3)
        mDelayuS(1000);
200004a6:	3e800513          	li	a0,1000
C:\MRS_DATA\workspace\AT\obj/../StdPeriphDriver/CH59x_sys.c:338 (discriminator 3)
    for(i = 0; i < t; i++)
200004aa:	0442                	slli	s0,s0,0x10
C:\MRS_DATA\workspace\AT\obj/../StdPeriphDriver/CH59x_sys.c:340 (discriminator 3)
        mDelayuS(1000);
200004ac:	3fc1                	jal	2000047c <mDelayuS>
C:\MRS_DATA\workspace\AT\obj/../StdPeriphDriver/CH59x_sys.c:338 (discriminator 3)
    for(i = 0; i < t; i++)
200004ae:	8041                	srli	s0,s0,0x10
200004b0:	b7dd                	j	20000496 <mDelaymS+0xc>

200004b2 <FLASH_ROM_BEG>:
FLASH_ROM_BEG():
200004b2:	80040323          	sb	zero,-2042(s0)
200004b6:	4715                	li	a4,5
200004b8:	80e40323          	sb	a4,-2042(s0)
200004bc:	0001                	nop
200004be:	80a40223          	sb	a0,-2044(s0)
200004c2:	8082                	ret

200004c4 <FLASH_ROM_END>:
FLASH_ROM_END():
200004c4:	80640783          	lb	a5,-2042(s0)
200004c8:	fe07cee3          	bltz	a5,200004c4 <FLASH_ROM_END>
200004cc:	80040323          	sb	zero,-2042(s0)
200004d0:	8082                	ret

200004d2 <FLASH_ROM_IN>:
FLASH_ROM_IN():
200004d2:	80640783          	lb	a5,-2042(s0)
200004d6:	fe07cee3          	bltz	a5,200004d2 <FLASH_ROM_IN>
200004da:	80444503          	lbu	a0,-2044(s0)
200004de:	8082                	ret

200004e0 <FLASH_ROM_OUT>:
FLASH_ROM_OUT():
200004e0:	80640783          	lb	a5,-2042(s0)
200004e4:	fe07cee3          	bltz	a5,200004e0 <FLASH_ROM_OUT>
200004e8:	80a40223          	sb	a0,-2044(s0)
200004ec:	8082                	ret

200004ee <FLASH_ROM_ADDR>:
FLASH_ROM_ADDR():
200004ee:	1141                	addi	sp,sp,-16
200004f0:	c426                	sw	s1,8(sp)
200004f2:	c24a                	sw	s2,4(sp)
200004f4:	c04e                	sw	s3,0(sp)
200004f6:	c606                	sw	ra,12(sp)
200004f8:	0bf57713          	andi	a4,a0,191
200004fc:	47ad                	li	a5,11
200004fe:	89aa                	mv	s3,a0
20000500:	892e                	mv	s2,a1
20000502:	4495                	li	s1,5
20000504:	00f70663          	beq	a4,a5,20000510 <FLASH_ROM_ADDR+0x22>
20000508:	4519                	li	a0,6
2000050a:	3765                	jal	200004b2 <FLASH_ROM_BEG>
2000050c:	3f65                	jal	200004c4 <FLASH_ROM_END>
2000050e:	448d                	li	s1,3
20000510:	854e                	mv	a0,s3
20000512:	3745                	jal	200004b2 <FLASH_ROM_BEG>
20000514:	59fd                	li	s3,-1
20000516:	14fd                	addi	s1,s1,-1
20000518:	01349863          	bne	s1,s3,20000528 <FLASH_ROM_ADDR+0x3a>
2000051c:	40b2                	lw	ra,12(sp)
2000051e:	44a2                	lw	s1,8(sp)
20000520:	4912                	lw	s2,4(sp)
20000522:	4982                	lw	s3,0(sp)
20000524:	0141                	addi	sp,sp,16
20000526:	8082                	ret
20000528:	01095513          	srli	a0,s2,0x10
2000052c:	0ff57513          	andi	a0,a0,255
20000530:	3f45                	jal	200004e0 <FLASH_ROM_OUT>
20000532:	0922                	slli	s2,s2,0x8
20000534:	b7cd                	j	20000516 <FLASH_ROM_ADDR+0x28>

20000536 <FLASH_ROM_WAIT>:
FLASH_ROM_WAIT():
20000536:	1101                	addi	sp,sp,-32
20000538:	cc26                	sw	s1,24(sp)
2000053a:	ce06                	sw	ra,28(sp)
2000053c:	000804b7          	lui	s1,0x80
20000540:	3751                	jal	200004c4 <FLASH_ROM_END>
20000542:	4515                	li	a0,5
20000544:	37bd                	jal	200004b2 <FLASH_ROM_BEG>
20000546:	3771                	jal	200004d2 <FLASH_ROM_IN>
20000548:	3769                	jal	200004d2 <FLASH_ROM_IN>
2000054a:	c62a                	sw	a0,12(sp)
2000054c:	3fa5                	jal	200004c4 <FLASH_ROM_END>
2000054e:	4532                	lw	a0,12(sp)
20000550:	00157793          	andi	a5,a0,1
20000554:	eb89                	bnez	a5,20000566 <FLASH_ROM_WAIT+0x30>
20000556:	00156513          	ori	a0,a0,1
2000055a:	0ff57513          	andi	a0,a0,255
2000055e:	40f2                	lw	ra,28(sp)
20000560:	44e2                	lw	s1,24(sp)
20000562:	6105                	addi	sp,sp,32
20000564:	8082                	ret
20000566:	14fd                	addi	s1,s1,-1
20000568:	fce9                	bnez	s1,20000542 <FLASH_ROM_WAIT+0xc>
2000056a:	4501                	li	a0,0
2000056c:	bfcd                	j	2000055e <FLASH_ROM_WAIT+0x28>

2000056e <FLASH_EEPROM_CMD>:
FLASH_EEPROM_CMD():
2000056e:	7139                	addi	sp,sp,-64
20000570:	dc26                	sw	s1,56(sp)
20000572:	da4a                	sw	s2,52(sp)
20000574:	d84e                	sw	s3,48(sp)
20000576:	d652                	sw	s4,44(sp)
20000578:	d456                	sw	s5,40(sp)
2000057a:	d25a                	sw	s6,36(sp)
2000057c:	d05e                	sw	s7,32(sp)
2000057e:	de06                	sw	ra,60(sp)
20000580:	ce62                	sw	s8,28(sp)
20000582:	cc66                	sw	s9,24(sp)
20000584:	e000e7b7          	lui	a5,0xe000e
20000588:	577d                	li	a4,-1
2000058a:	0007aa83          	lw	s5,0(a5) # e000e000 <_eusrstack+0xc0007800>
2000058e:	c622                	sw	s0,12(sp)
20000590:	0047aa03          	lw	s4,4(a5)
20000594:	18e7a023          	sw	a4,384(a5)
20000598:	18e7a223          	sw	a4,388(a5)
2000059c:	400017b7          	lui	a5,0x40001
200005a0:	05700713          	li	a4,87
200005a4:	04e78023          	sb	a4,64(a5) # 40001040 <_eusrstack+0x1fffa840>
200005a8:	fa800713          	li	a4,-88
200005ac:	04e78023          	sb	a4,64(a5)
200005b0:	0447c783          	lbu	a5,68(a5)
200005b4:	ff750b93          	addi	s7,a0,-9
200005b8:	84b6                	mv	s1,a3
200005ba:	07e2                	slli	a5,a5,0x18
200005bc:	0ffbfb93          	andi	s7,s7,255
200005c0:	4685                	li	a3,1
200005c2:	89aa                	mv	s3,a0
200005c4:	8b2e                	mv	s6,a1
200005c6:	8932                	mv	s2,a2
200005c8:	40002437          	lui	s0,0x40002
200005cc:	87e1                	srai	a5,a5,0x18
200005ce:	5701                	li	a4,-32
200005d0:	0176fa63          	bgeu	a3,s7,200005e4 <FLASH_EEPROM_CMD+0x76>
200005d4:	00d50863          	beq	a0,a3,200005e4 <FLASH_EEPROM_CMD+0x76>
200005d8:	4689                	li	a3,2
200005da:	02000713          	li	a4,32
200005de:	00d51363          	bne	a0,a3,200005e4 <FLASH_EEPROM_CMD+0x76>
200005e2:	5701                	li	a4,-32
200005e4:	8fd9                	or	a5,a5,a4
200005e6:	0ff7f793          	andi	a5,a5,255
200005ea:	40001cb7          	lui	s9,0x40001
200005ee:	04fc8223          	sb	a5,68(s9) # 40001044 <_eusrstack+0x1fffa844>
200005f2:	4711                	li	a4,4
200005f4:	80e40323          	sb	a4,-2042(s0) # 40001806 <_eusrstack+0x1fffb006>
200005f8:	0ff00513          	li	a0,255
200005fc:	3d5d                	jal	200004b2 <FLASH_ROM_BEG>
200005fe:	4c09                	li	s8,2
20000600:	35d1                	jal	200004c4 <FLASH_ROM_END>
20000602:	117c6d63          	bltu	s8,s7,2000071c <FLASH_EEPROM_CMD+0x1ae>
20000606:	000705b7          	lui	a1,0x70
2000060a:	95da                	add	a1,a1,s6
2000060c:	00078737          	lui	a4,0x78
20000610:	5579                	li	a0,-2
20000612:	04e5f263          	bgeu	a1,a4,20000656 <FLASH_EEPROM_CMD+0xe8>
20000616:	009587b3          	add	a5,a1,s1
2000061a:	02f76e63          	bltu	a4,a5,20000656 <FLASH_EEPROM_CMD+0xe8>
2000061e:	00080b37          	lui	s6,0x80
20000622:	47a9                	li	a5,10
20000624:	0165eb33          	or	s6,a1,s6
20000628:	06f99963          	bne	s3,a5,2000069a <FLASH_EEPROM_CMD+0x12c>
2000062c:	e489                	bnez	s1,20000636 <FLASH_EEPROM_CMD+0xc8>
2000062e:	4481                	li	s1,0
20000630:	3d51                	jal	200004c4 <FLASH_ROM_END>
20000632:	8526                	mv	a0,s1
20000634:	a00d                	j	20000656 <FLASH_EEPROM_CMD+0xe8>
20000636:	85da                	mv	a1,s6
20000638:	4509                	li	a0,2
2000063a:	3d55                	jal	200004ee <FLASH_ROM_ADDR>
2000063c:	0905                	addi	s2,s2,1
2000063e:	fff94503          	lbu	a0,-1(s2)
20000642:	14fd                	addi	s1,s1,-1
20000644:	0b05                	addi	s6,s6,1
20000646:	3d69                	jal	200004e0 <FLASH_ROM_OUT>
20000648:	c481                	beqz	s1,20000650 <FLASH_EEPROM_CMD+0xe2>
2000064a:	0ffb7793          	andi	a5,s6,255
2000064e:	f7fd                	bnez	a5,2000063c <FLASH_EEPROM_CMD+0xce>
20000650:	35dd                	jal	20000536 <FLASH_ROM_WAIT>
20000652:	fd69                	bnez	a0,2000062c <FLASH_EEPROM_CMD+0xbe>
20000654:	557d                	li	a0,-1
20000656:	400017b7          	lui	a5,0x40001
2000065a:	05700713          	li	a4,87
2000065e:	04e78023          	sb	a4,64(a5) # 40001040 <_eusrstack+0x1fffa840>
20000662:	fa800713          	li	a4,-88
20000666:	04e78023          	sb	a4,64(a5)
2000066a:	0447c703          	lbu	a4,68(a5)
2000066e:	8b41                	andi	a4,a4,16
20000670:	04e78223          	sb	a4,68(a5)
20000674:	50f2                	lw	ra,60(sp)
20000676:	e000e7b7          	lui	a5,0xe000e
2000067a:	1157a023          	sw	s5,256(a5) # e000e100 <_eusrstack+0xc0007900>
2000067e:	1147a223          	sw	s4,260(a5)
20000682:	54e2                	lw	s1,56(sp)
20000684:	4432                	lw	s0,12(sp)
20000686:	5952                	lw	s2,52(sp)
20000688:	59c2                	lw	s3,48(sp)
2000068a:	5a32                	lw	s4,44(sp)
2000068c:	5aa2                	lw	s5,40(sp)
2000068e:	5b12                	lw	s6,36(sp)
20000690:	5b82                	lw	s7,32(sp)
20000692:	4c72                	lw	s8,28(sp)
20000694:	4ce2                	lw	s9,24(sp)
20000696:	6121                	addi	sp,sp,64
20000698:	8082                	ret
2000069a:	47a5                	li	a5,9
2000069c:	06f99563          	bne	s3,a5,20000706 <FLASH_EEPROM_CMD+0x198>
200006a0:	6985                	lui	s3,0x1
200006a2:	0ff00913          	li	s2,255
200006a6:	009906b3          	add	a3,s2,s1
200006aa:	012b74b3          	and	s1,s6,s2
200006ae:	94b6                	add	s1,s1,a3
200006b0:	fff94913          	not	s2,s2
200006b4:	009974b3          	and	s1,s2,s1
200006b8:	6b85                	lui	s7,0x1
200006ba:	01697933          	and	s2,s2,s6
200006be:	6b41                	lui	s6,0x10
200006c0:	fff98793          	addi	a5,s3,-1 # fff <memcpy+0x47>
200006c4:	0127f7b3          	and	a5,a5,s2
200006c8:	e399                	bnez	a5,200006ce <FLASH_EEPROM_CMD+0x160>
200006ca:	0134fc63          	bgeu	s1,s3,200006e2 <FLASH_EEPROM_CMD+0x174>
200006ce:	0049d993          	srli	s3,s3,0x4
200006d2:	47c1                	li	a5,16
200006d4:	ff37e6e3          	bltu	a5,s3,200006c0 <FLASH_EEPROM_CMD+0x152>
200006d8:	bf99                	j	2000062e <FLASH_EEPROM_CMD+0xc0>
200006da:	6905                	lui	s2,0x1
200006dc:	69c1                	lui	s3,0x10
200006de:	197d                	addi	s2,s2,-1
200006e0:	b7d9                	j	200006a6 <FLASH_EEPROM_CMD+0x138>
200006e2:	0d800513          	li	a0,216
200006e6:	01698863          	beq	s3,s6,200006f6 <FLASH_EEPROM_CMD+0x188>
200006ea:	02000513          	li	a0,32
200006ee:	01798463          	beq	s3,s7,200006f6 <FLASH_EEPROM_CMD+0x188>
200006f2:	08100513          	li	a0,129
200006f6:	85ca                	mv	a1,s2
200006f8:	3bdd                	jal	200004ee <FLASH_ROM_ADDR>
200006fa:	3d35                	jal	20000536 <FLASH_ROM_WAIT>
200006fc:	dd21                	beqz	a0,20000654 <FLASH_EEPROM_CMD+0xe6>
200006fe:	994e                	add	s2,s2,s3
20000700:	413484b3          	sub	s1,s1,s3
20000704:	b7d9                	j	200006ca <FLASH_EEPROM_CMD+0x15c>
20000706:	85da                	mv	a1,s6
20000708:	452d                	li	a0,11
2000070a:	33d5                	jal	200004ee <FLASH_ROM_ADDR>
2000070c:	94ca                	add	s1,s1,s2
2000070e:	f29900e3          	beq	s2,s1,2000062e <FLASH_EEPROM_CMD+0xc0>
20000712:	0905                	addi	s2,s2,1
20000714:	3b7d                	jal	200004d2 <FLASH_ROM_IN>
20000716:	fea90fa3          	sb	a0,-1(s2) # fff <memcpy+0x47>
2000071a:	bfd5                	j	2000070e <FLASH_EEPROM_CMD+0x1a0>
2000071c:	fff98793          	addi	a5,s3,-1 # ffff <_data_lma+0xeebb>
20000720:	0ff7f793          	andi	a5,a5,255
20000724:	0cfc6163          	bltu	s8,a5,200007e6 <.loop402+0x7a>
20000728:	041cc783          	lbu	a5,65(s9)
2000072c:	08300713          	li	a4,131
20000730:	04f71f63          	bne	a4,a5,2000078e <.loop402+0x22>
20000734:	00080737          	lui	a4,0x80
20000738:	04eb6b63          	bltu	s6,a4,2000078e <.loop402+0x22>
2000073c:	009b07b3          	add	a5,s6,s1
20000740:	001006b7          	lui	a3,0x100
20000744:	04d7f563          	bgeu	a5,a3,2000078e <.loop402+0x22>
20000748:	00eb4b33          	xor	s6,s6,a4
2000074c:	4789                	li	a5,2
2000074e:	06f99363          	bne	s3,a5,200007b4 <.loop402+0x48>
20000752:	8089                	srli	s1,s1,0x2
20000754:	49d5                	li	s3,21
20000756:	ec048ce3          	beqz	s1,2000062e <FLASH_EEPROM_CMD+0xc0>
2000075a:	85da                	mv	a1,s6
2000075c:	4509                	li	a0,2
2000075e:	3b41                	jal	200004ee <FLASH_ROM_ADDR>
20000760:	0911                	addi	s2,s2,4
20000762:	ffc92703          	lw	a4,-4(s2)
20000766:	4791                	li	a5,4
20000768:	80e42023          	sw	a4,-2048(s0)

2000076c <.loop402>:
2000076c:	80640703          	lb	a4,-2042(s0)
20000770:	fe074ee3          	bltz	a4,2000076c <.loop402>
20000774:	81340323          	sb	s3,-2042(s0)
20000778:	17fd                	addi	a5,a5,-1
2000077a:	fbed                	bnez	a5,2000076c <.loop402>
2000077c:	14fd                	addi	s1,s1,-1
2000077e:	0b11                	addi	s6,s6,4
20000780:	c481                	beqz	s1,20000788 <.loop402+0x1c>
20000782:	0ffb7793          	andi	a5,s6,255
20000786:	ffe9                	bnez	a5,20000760 <FLASH_EEPROM_CMD+0x1f2>
20000788:	337d                	jal	20000536 <FLASH_ROM_WAIT>
2000078a:	f571                	bnez	a0,20000756 <FLASH_EEPROM_CMD+0x1e8>
2000078c:	b5e1                	j	20000654 <FLASH_EEPROM_CMD+0xe6>
2000078e:	400017b7          	lui	a5,0x40001
20000792:	0457c703          	lbu	a4,69(a5) # 40001045 <_eusrstack+0x1fffa845>
20000796:	000807b7          	lui	a5,0x80
2000079a:	02077713          	andi	a4,a4,32
2000079e:	e319                	bnez	a4,200007a4 <.loop402+0x38>
200007a0:	000787b7          	lui	a5,0x78
200007a4:	5579                	li	a0,-2
200007a6:	eafb78e3          	bgeu	s6,a5,20000656 <FLASH_EEPROM_CMD+0xe8>
200007aa:	009b0733          	add	a4,s6,s1
200007ae:	f8e7ffe3          	bgeu	a5,a4,2000074c <FLASH_EEPROM_CMD+0x1de>
200007b2:	b555                	j	20000656 <FLASH_EEPROM_CMD+0xe8>
200007b4:	4785                	li	a5,1
200007b6:	f2f982e3          	beq	s3,a5,200006da <FLASH_EEPROM_CMD+0x16c>
200007ba:	85da                	mv	a1,s6
200007bc:	452d                	li	a0,11
200007be:	3b05                	jal	200004ee <FLASH_ROM_ADDR>
200007c0:	fff48993          	addi	s3,s1,-1 # 7ffff <_data_lma+0x7eebb>
200007c4:	e60485e3          	beqz	s1,2000062e <FLASH_EEPROM_CMD+0xc0>
200007c8:	3329                	jal	200004d2 <FLASH_ROM_IN>
200007ca:	0039f793          	andi	a5,s3,3
200007ce:	eb91                	bnez	a5,200007e2 <.loop402+0x76>
200007d0:	80042683          	lw	a3,-2048(s0)
200007d4:	00092703          	lw	a4,0(s2)
200007d8:	00490793          	addi	a5,s2,4
200007dc:	e4e69ae3          	bne	a3,a4,20000630 <FLASH_EEPROM_CMD+0xc2>
200007e0:	893e                	mv	s2,a5
200007e2:	84ce                	mv	s1,s3
200007e4:	bff1                	j	200007c0 <.loop402+0x54>
200007e6:	47b5                	li	a5,13
200007e8:	00f99663          	bne	s3,a5,200007f4 <.loop402+0x88>
200007ec:	0b900513          	li	a0,185
200007f0:	31c9                	jal	200004b2 <FLASH_ROM_BEG>
200007f2:	bd35                	j	2000062e <FLASH_EEPROM_CMD+0xc0>
200007f4:	47b1                	li	a5,12
200007f6:	0ab00513          	li	a0,171
200007fa:	fef98be3          	beq	s3,a5,200007f0 <.loop402+0x84>
200007fe:	4799                	li	a5,6
20000800:	04f99163          	bne	s3,a5,20000842 <.loop402+0xd6>
20000804:	000805b7          	lui	a1,0x80
20000808:	00bb65b3          	or	a1,s6,a1
2000080c:	452d                	li	a0,11
2000080e:	31c5                	jal	200004ee <FLASH_ROM_ADDR>
20000810:	4481                	li	s1,0
20000812:	4b8d                	li	s7,3
20000814:	49a1                	li	s3,8
20000816:	3975                	jal	200004d2 <FLASH_ROM_IN>
20000818:	01749663          	bne	s1,s7,20000824 <.loop402+0xb8>
2000081c:	80042783          	lw	a5,-2048(s0)
20000820:	00f92023          	sw	a5,0(s2)
20000824:	0485                	addi	s1,s1,1
20000826:	ff3498e3          	bne	s1,s3,20000816 <.loop402+0xaa>
2000082a:	80042783          	lw	a5,-2048(s0)
2000082e:	012b1713          	slli	a4,s6,0x12
20000832:	00075563          	bgez	a4,2000083c <.loop402+0xd0>
20000836:	00f91223          	sh	a5,4(s2)
2000083a:	bbd5                	j	2000062e <FLASH_EEPROM_CMD+0xc0>
2000083c:	00f92223          	sw	a5,4(s2)
20000840:	b3fd                	j	2000062e <FLASH_EEPROM_CMD+0xc0>
20000842:	479d                	li	a5,7
20000844:	02f99963          	bne	s3,a5,20000876 <.loop402+0x10a>
20000848:	4581                	li	a1,0
2000084a:	04b00513          	li	a0,75
2000084e:	3145                	jal	200004ee <FLASH_ROM_ADDR>
20000850:	44bd                	li	s1,15
20000852:	00092023          	sw	zero,0(s2)
20000856:	00092223          	sw	zero,4(s2)
2000085a:	59fd                	li	s3,-1
2000085c:	399d                	jal	200004d2 <FLASH_ROM_IN>
2000085e:	0074f793          	andi	a5,s1,7
20000862:	97ca                	add	a5,a5,s2
20000864:	0007c703          	lbu	a4,0(a5) # 78000 <_data_lma+0x76ebc>
20000868:	14fd                	addi	s1,s1,-1
2000086a:	8d39                	xor	a0,a0,a4
2000086c:	00a78023          	sb	a0,0(a5)
20000870:	ff3496e3          	bne	s1,s3,2000085c <.loop402+0xf0>
20000874:	bb6d                	j	2000062e <FLASH_EEPROM_CMD+0xc0>
20000876:	47a1                	li	a5,8
20000878:	04f99263          	bne	s3,a5,200008bc <.loop402+0x150>
2000087c:	396d                	jal	20000536 <FLASH_ROM_WAIT>
2000087e:	4481                	li	s1,0
20000880:	000b0d63          	beqz	s6,2000089a <.loop402+0x12e>
20000884:	478d                	li	a5,3
20000886:	03c00493          	li	s1,60
2000088a:	00fb0863          	beq	s6,a5,2000089a <.loop402+0x12e>
2000088e:	05000493          	li	s1,80
20000892:	018b0463          	beq	s6,s8,2000089a <.loop402+0x12e>
20000896:	04400493          	li	s1,68
2000089a:	07c57513          	andi	a0,a0,124
2000089e:	d89508e3          	beq	a0,s1,2000062e <FLASH_EEPROM_CMD+0xc0>
200008a2:	4519                	li	a0,6
200008a4:	3139                	jal	200004b2 <FLASH_ROM_BEG>
200008a6:	3939                	jal	200004c4 <FLASH_ROM_END>
200008a8:	4505                	li	a0,1
200008aa:	3121                	jal	200004b2 <FLASH_ROM_BEG>
200008ac:	8526                	mv	a0,s1
200008ae:	390d                	jal	200004e0 <FLASH_ROM_OUT>
200008b0:	4509                	li	a0,2
200008b2:	313d                	jal	200004e0 <FLASH_ROM_OUT>
200008b4:	3149                	jal	20000536 <FLASH_ROM_WAIT>
200008b6:	d6051ce3          	bnez	a0,2000062e <FLASH_EEPROM_CMD+0xc0>
200008ba:	bb69                	j	20000654 <FLASH_EEPROM_CMD+0xe6>
200008bc:	4791                	li	a5,4
200008be:	00f99963          	bne	s3,a5,200008d0 <.loop402+0x164>
200008c2:	06600513          	li	a0,102
200008c6:	36f5                	jal	200004b2 <FLASH_ROM_BEG>
200008c8:	3ef5                	jal	200004c4 <FLASH_ROM_END>
200008ca:	09900513          	li	a0,153
200008ce:	b70d                	j	200007f0 <.loop402+0x84>
200008d0:	d4098fe3          	beqz	s3,2000062e <FLASH_EEPROM_CMD+0xc0>
200008d4:	54f1                	li	s1,-4
200008d6:	bba9                	j	20000630 <FLASH_EEPROM_CMD+0xc2>

Disassembly of section .text:

000008dc <handle_reset>:
handle_reset():
C:\MRS_DATA\workspace\AT\obj/../Startup/startup_CH592.S:127
	.weak	handle_reset
	.align	1
handle_reset:
.option push 
.option	norelax 
	la gp, __global_pointer$
     8dc:	20000197          	auipc	gp,0x20000
     8e0:	7fc18193          	addi	gp,gp,2044 # 200010d8 <__global_pointer$>
C:\MRS_DATA\workspace\AT\obj/../Startup/startup_CH592.S:130
.option	pop 
1:
	la sp, _eusrstack 
     8e4:	20006117          	auipc	sp,0x20006
     8e8:	f1c10113          	addi	sp,sp,-228 # 20006800 <_eusrstack>
C:\MRS_DATA\workspace\AT\obj/../Startup/startup_CH592.S:134

/* Load highcode code  section from flash to RAM */
2:
    la a0, _highcode_lma
     8ec:	00400513          	li	a0,4
C:\MRS_DATA\workspace\AT\obj/../Startup/startup_CH592.S:135
    la a1, _highcode_vma_start
     8f0:	1ffff597          	auipc	a1,0x1ffff
     8f4:	71058593          	addi	a1,a1,1808 # 20000000 <_highcode_vma_start>
C:\MRS_DATA\workspace\AT\obj/../Startup/startup_CH592.S:136
    la a2, _highcode_vma_end
     8f8:	20000617          	auipc	a2,0x20000
     8fc:	fe060613          	addi	a2,a2,-32 # 200008d8 <_highcode_vma_end>
C:\MRS_DATA\workspace\AT\obj/../Startup/startup_CH592.S:137
    bgeu a1, a2, 2f
     900:	00c5fa63          	bgeu	a1,a2,914 <handle_reset+0x38>
C:\MRS_DATA\workspace\AT\obj/../Startup/startup_CH592.S:139
1:
    lw t0, (a0)
     904:	00052283          	lw	t0,0(a0)
C:\MRS_DATA\workspace\AT\obj/../Startup/startup_CH592.S:140
    sw t0, (a1)
     908:	0055a023          	sw	t0,0(a1)
C:\MRS_DATA\workspace\AT\obj/../Startup/startup_CH592.S:141
    addi a0, a0, 4
     90c:	0511                	addi	a0,a0,4
C:\MRS_DATA\workspace\AT\obj/../Startup/startup_CH592.S:142
    addi a1, a1, 4
     90e:	0591                	addi	a1,a1,4
C:\MRS_DATA\workspace\AT\obj/../Startup/startup_CH592.S:143
    bltu a1, a2, 1b
     910:	fec5eae3          	bltu	a1,a2,904 <handle_reset+0x28>
C:\MRS_DATA\workspace\AT\obj/../Startup/startup_CH592.S:147

/* Load data section from flash to RAM */
2:
	la a0, _data_lma
     914:	00001517          	auipc	a0,0x1
     918:	83050513          	addi	a0,a0,-2000 # 1144 <_data_lma>
C:\MRS_DATA\workspace\AT\obj/../Startup/startup_CH592.S:148
	la a1, _data_vma
     91c:	20000597          	auipc	a1,0x20000
     920:	fbc58593          	addi	a1,a1,-68 # 200008d8 <_highcode_vma_end>
C:\MRS_DATA\workspace\AT\obj/../Startup/startup_CH592.S:149
	la a2, _edata
     924:	20000617          	auipc	a2,0x20000
     928:	fb460613          	addi	a2,a2,-76 # 200008d8 <_highcode_vma_end>
C:\MRS_DATA\workspace\AT\obj/../Startup/startup_CH592.S:150
	bgeu a1, a2, 2f
     92c:	00c5fa63          	bgeu	a1,a2,940 <handle_reset+0x64>
C:\MRS_DATA\workspace\AT\obj/../Startup/startup_CH592.S:152
1:
	lw t0, (a0)
     930:	00052283          	lw	t0,0(a0)
C:\MRS_DATA\workspace\AT\obj/../Startup/startup_CH592.S:153
	sw t0, (a1)
     934:	0055a023          	sw	t0,0(a1)
C:\MRS_DATA\workspace\AT\obj/../Startup/startup_CH592.S:154
	addi a0, a0, 4
     938:	0511                	addi	a0,a0,4
C:\MRS_DATA\workspace\AT\obj/../Startup/startup_CH592.S:155
	addi a1, a1, 4
     93a:	0591                	addi	a1,a1,4
C:\MRS_DATA\workspace\AT\obj/../Startup/startup_CH592.S:156
	bltu a1, a2, 1b
     93c:	fec5eae3          	bltu	a1,a2,930 <handle_reset+0x54>
C:\MRS_DATA\workspace\AT\obj/../Startup/startup_CH592.S:159
2:
	/* clear bss section */
	la a0, _sbss
     940:	20000517          	auipc	a0,0x20000
     944:	f9850513          	addi	a0,a0,-104 # 200008d8 <_highcode_vma_end>
C:\MRS_DATA\workspace\AT\obj/../Startup/startup_CH592.S:160
	la a1, _ebss
     948:	9b418593          	addi	a1,gp,-1612 # 20000a8c <_ebss>
C:\MRS_DATA\workspace\AT\obj/../Startup/startup_CH592.S:161
	bgeu a0, a1, 2f
     94c:	00b57763          	bgeu	a0,a1,95a <handle_reset+0x7e>
C:\MRS_DATA\workspace\AT\obj/../Startup/startup_CH592.S:163
1:
	sw zero, (a0)
     950:	00052023          	sw	zero,0(a0)
C:\MRS_DATA\workspace\AT\obj/../Startup/startup_CH592.S:164
	addi a0, a0, 4
     954:	0511                	addi	a0,a0,4
C:\MRS_DATA\workspace\AT\obj/../Startup/startup_CH592.S:165
	bltu a0, a1, 1b
     956:	feb56de3          	bltu	a0,a1,950 <handle_reset+0x74>
C:\MRS_DATA\workspace\AT\obj/../Startup/startup_CH592.S:168
2:
	/* 流水线控制位 & 动态预测控制位 */
	li t0, 0x1f
     95a:	42fd                	li	t0,31
C:\MRS_DATA\workspace\AT\obj/../Startup/startup_CH592.S:169
	csrw 0xbc0, t0
     95c:	bc029073          	csrw	0xbc0,t0
C:\MRS_DATA\workspace\AT\obj/../Startup/startup_CH592.S:171
	/* 打开嵌套中断、硬件压栈功能 */
	li t0, 0x3
     960:	428d                	li	t0,3
C:\MRS_DATA\workspace\AT\obj/../Startup/startup_CH592.S:172
	csrw 0x804, t0
     962:	80429073          	csrw	0x804,t0
C:\MRS_DATA\workspace\AT\obj/../Startup/startup_CH592.S:174
	
    li t0, 0x88
     966:	08800293          	li	t0,136
C:\MRS_DATA\workspace\AT\obj/../Startup/startup_CH592.S:175
    csrs mstatus, t0
     96a:	3002a073          	csrs	mstatus,t0
C:\MRS_DATA\workspace\AT\obj/../Startup/startup_CH592.S:176
	la t0, _vector_base
     96e:	1ffff297          	auipc	t0,0x1ffff
     972:	69228293          	addi	t0,t0,1682 # 20000000 <_highcode_vma_start>
C:\MRS_DATA\workspace\AT\obj/../Startup/startup_CH592.S:179

	/* 配置向量表模式为绝对地址模式 */
    ori t0, t0, 3
     976:	0032e293          	ori	t0,t0,3
C:\MRS_DATA\workspace\AT\obj/../Startup/startup_CH592.S:180
	csrw mtvec, t0
     97a:	30529073          	csrw	mtvec,t0
C:\MRS_DATA\workspace\AT\obj/../Startup/startup_CH592.S:182

	la t0, main
     97e:	00000297          	auipc	t0,0x0
     982:	20c28293          	addi	t0,t0,524 # b8a <main>
C:\MRS_DATA\workspace\AT\obj/../Startup/startup_CH592.S:183
	csrw mepc, t0
     986:	34129073          	csrw	mepc,t0
C:\MRS_DATA\workspace\AT\obj/../Startup/startup_CH592.S:185
	
	mret
     98a:	30200073          	mret

0000098e <memset>:
memset():
     98e:	433d                	li	t1,15
     990:	872a                	mv	a4,a0
     992:	02c37363          	bgeu	t1,a2,9b8 <memset+0x2a>
     996:	00f77793          	andi	a5,a4,15
     99a:	efbd                	bnez	a5,a18 <memset+0x8a>
     99c:	e5ad                	bnez	a1,a06 <memset+0x78>
     99e:	ff067693          	andi	a3,a2,-16
     9a2:	8a3d                	andi	a2,a2,15
     9a4:	96ba                	add	a3,a3,a4
     9a6:	c30c                	sw	a1,0(a4)
     9a8:	c34c                	sw	a1,4(a4)
     9aa:	c70c                	sw	a1,8(a4)
     9ac:	c74c                	sw	a1,12(a4)
     9ae:	0741                	addi	a4,a4,16
     9b0:	fed76be3          	bltu	a4,a3,9a6 <memset+0x18>
     9b4:	e211                	bnez	a2,9b8 <memset+0x2a>
     9b6:	8082                	ret
     9b8:	40c306b3          	sub	a3,t1,a2
     9bc:	068a                	slli	a3,a3,0x2
     9be:	00000297          	auipc	t0,0x0
     9c2:	9696                	add	a3,a3,t0
     9c4:	00a68067          	jr	10(a3) # 10000a <_data_lma+0xfeec6>
     9c8:	00b70723          	sb	a1,14(a4) # 8000e <_data_lma+0x7eeca>
     9cc:	00b706a3          	sb	a1,13(a4)
     9d0:	00b70623          	sb	a1,12(a4)
     9d4:	00b705a3          	sb	a1,11(a4)
     9d8:	00b70523          	sb	a1,10(a4)
     9dc:	00b704a3          	sb	a1,9(a4)
     9e0:	00b70423          	sb	a1,8(a4)
     9e4:	00b703a3          	sb	a1,7(a4)
     9e8:	00b70323          	sb	a1,6(a4)
     9ec:	00b702a3          	sb	a1,5(a4)
     9f0:	00b70223          	sb	a1,4(a4)
     9f4:	00b701a3          	sb	a1,3(a4)
     9f8:	00b70123          	sb	a1,2(a4)
     9fc:	00b700a3          	sb	a1,1(a4)
     a00:	00b70023          	sb	a1,0(a4)
     a04:	8082                	ret
     a06:	0ff5f593          	andi	a1,a1,255
     a0a:	00859693          	slli	a3,a1,0x8
     a0e:	8dd5                	or	a1,a1,a3
     a10:	01059693          	slli	a3,a1,0x10
     a14:	8dd5                	or	a1,a1,a3
     a16:	b761                	j	99e <memset+0x10>
     a18:	00279693          	slli	a3,a5,0x2
     a1c:	00000297          	auipc	t0,0x0
     a20:	9696                	add	a3,a3,t0
     a22:	8286                	mv	t0,ra
     a24:	fa8680e7          	jalr	-88(a3)
     a28:	8096                	mv	ra,t0
     a2a:	17c1                	addi	a5,a5,-16
     a2c:	8f1d                	sub	a4,a4,a5
     a2e:	963e                	add	a2,a2,a5
     a30:	f8c374e3          	bgeu	t1,a2,9b8 <memset+0x2a>
     a34:	b7a5                	j	99c <memset+0xe>

00000a36 <is_last_at_res_right>:
is_last_at_res_right():
C:\MRS_DATA\workspace\AT\obj/../User/Main.c:32
}MSG;
uartmsg uart1msg;uint8_t nowprt=0;uint8_t len0 = 0;
MSG mainmsg;
uint8_t tag=0;
int is_last_at_res_right()
{
     a36:	1141                	addi	sp,sp,-16
C:\MRS_DATA\workspace\AT\obj/../User/Main.c:33
    UART3_SendString(&mainmsg.data[nowprt-4], 1);
     a38:	20000517          	auipc	a0,0x20000
     a3c:	ea154503          	lbu	a0,-351(a0) # 200008d9 <nowprt>
C:\MRS_DATA\workspace\AT\obj/../User/Main.c:32
{
     a40:	c422                	sw	s0,8(sp)
C:\MRS_DATA\workspace\AT\obj/../User/Main.c:33
    UART3_SendString(&mainmsg.data[nowprt-4], 1);
     a42:	1571                	addi	a0,a0,-4
     a44:	8d018413          	addi	s0,gp,-1840 # 200009a8 <mainmsg>
     a48:	9522                	add	a0,a0,s0
     a4a:	4585                	li	a1,1
C:\MRS_DATA\workspace\AT\obj/../User/Main.c:32
{
     a4c:	c606                	sw	ra,12(sp)
C:\MRS_DATA\workspace\AT\obj/../User/Main.c:33
    UART3_SendString(&mainmsg.data[nowprt-4], 1);
     a4e:	2b21                	jal	f66 <UART3_SendString>
C:\MRS_DATA\workspace\AT\obj/../User/Main.c:34
    UART3_SendString(&mainmsg.data[nowprt-3], 1);
     a50:	20000517          	auipc	a0,0x20000
     a54:	e8954503          	lbu	a0,-375(a0) # 200008d9 <nowprt>
     a58:	1575                	addi	a0,a0,-3
     a5a:	9522                	add	a0,a0,s0
     a5c:	4585                	li	a1,1
     a5e:	2321                	jal	f66 <UART3_SendString>
C:\MRS_DATA\workspace\AT\obj/../User/Main.c:35
    if(mainmsg.data[nowprt-4] =='O' && mainmsg.data[nowprt-3] =='K')
     a60:	20000797          	auipc	a5,0x20000
     a64:	e797c783          	lbu	a5,-391(a5) # 200008d9 <nowprt>
     a68:	943e                	add	s0,s0,a5
     a6a:	ffc40703          	lb	a4,-4(s0)
     a6e:	04f00793          	li	a5,79
     a72:	4501                	li	a0,0
     a74:	00f71863          	bne	a4,a5,a84 <is_last_at_res_right+0x4e>
C:\MRS_DATA\workspace\AT\obj/../User/Main.c:35 (discriminator 1)
     a78:	ffd40503          	lb	a0,-3(s0)
     a7c:	fb550513          	addi	a0,a0,-75
     a80:	00153513          	seqz	a0,a0
C:\MRS_DATA\workspace\AT\obj/../User/Main.c:40
        return 1;
    else {
        return 0;
    }
}
     a84:	40b2                	lw	ra,12(sp)
     a86:	4422                	lw	s0,8(sp)
     a88:	0141                	addi	sp,sp,16
     a8a:	8082                	ret

00000a8c <connect>:
connect():
C:\MRS_DATA\workspace\AT\obj/../User/Main.c:43

int connect()
{
     a8c:	7139                	addi	sp,sp,-64
C:\MRS_DATA\workspace\AT\obj/../User/Main.c:44
    UART3_SendString("AT+CP",5);
     a8e:	4595                	li	a1,5
     a90:	00000517          	auipc	a0,0x0
     a94:	5f050513          	addi	a0,a0,1520 # 1080 <strlen+0x12>
C:\MRS_DATA\workspace\AT\obj/../User/Main.c:43
{
     a98:	de06                	sw	ra,60(sp)
C:\MRS_DATA\workspace\AT\obj/../User/Main.c:44
    UART3_SendString("AT+CP",5);
     a9a:	21f1                	jal	f66 <UART3_SendString>
C:\MRS_DATA\workspace\AT\obj/../User/Main.c:45
    DelayMs(1000);
     a9c:	3e800513          	li	a0,1000
     aa0:	20000097          	auipc	ra,0x20000
     aa4:	9ea080e7          	jalr	-1558(ra) # 2000048a <mDelaymS>
C:\MRS_DATA\workspace\AT\obj/../User/Main.c:46
    UART1_SendString("AT+CPIN?\r\n",10);
     aa8:	45a9                	li	a1,10
     aaa:	00000517          	auipc	a0,0x0
     aae:	5de50513          	addi	a0,a0,1502 # 1088 <strlen+0x1a>
     ab2:	2e75                	jal	e6e <UART1_SendString>
C:\MRS_DATA\workspace\AT\obj/../User/Main.c:47
    DelayMs(1000);
     ab4:	3e800513          	li	a0,1000
     ab8:	20000097          	auipc	ra,0x20000
     abc:	9d2080e7          	jalr	-1582(ra) # 2000048a <mDelaymS>
C:\MRS_DATA\workspace\AT\obj/../User/Main.c:48
    if(is_last_at_res_right())UART3_SendString("cpinok\r\n", 8);
     ac0:	3f9d                	jal	a36 <is_last_at_res_right>
     ac2:	c519                	beqz	a0,ad0 <connect+0x44>
C:\MRS_DATA\workspace\AT\obj/../User/Main.c:48 (discriminator 1)
     ac4:	45a1                	li	a1,8
     ac6:	00000517          	auipc	a0,0x0
     aca:	5ce50513          	addi	a0,a0,1486 # 1094 <strlen+0x26>
     ace:	2961                	jal	f66 <UART3_SendString>
C:\MRS_DATA\workspace\AT\obj/../User/Main.c:49
    UART1_SendString("AT+CGREG?\r\n",11);
     ad0:	45ad                	li	a1,11
     ad2:	00000517          	auipc	a0,0x0
     ad6:	5ce50513          	addi	a0,a0,1486 # 10a0 <strlen+0x32>
     ada:	2e51                	jal	e6e <UART1_SendString>
C:\MRS_DATA\workspace\AT\obj/../User/Main.c:50
    DelayMs(1000);
     adc:	3e800513          	li	a0,1000
     ae0:	20000097          	auipc	ra,0x20000
     ae4:	9aa080e7          	jalr	-1622(ra) # 2000048a <mDelaymS>
C:\MRS_DATA\workspace\AT\obj/../User/Main.c:51
        if(is_last_at_res_right())UART3_SendString("CGREGok\r\n", 9);
     ae8:	37b9                	jal	a36 <is_last_at_res_right>
     aea:	c519                	beqz	a0,af8 <connect+0x6c>
C:\MRS_DATA\workspace\AT\obj/../User/Main.c:51 (discriminator 1)
     aec:	45a5                	li	a1,9
     aee:	00000517          	auipc	a0,0x0
     af2:	5be50513          	addi	a0,a0,1470 # 10ac <strlen+0x3e>
     af6:	2985                	jal	f66 <UART3_SendString>
C:\MRS_DATA\workspace\AT\obj/../User/Main.c:52
    UART1_SendString("AT+QICSGP=1,1?\r\n",16);
     af8:	45c1                	li	a1,16
     afa:	00000517          	auipc	a0,0x0
     afe:	5be50513          	addi	a0,a0,1470 # 10b8 <strlen+0x4a>
     b02:	26b5                	jal	e6e <UART1_SendString>
C:\MRS_DATA\workspace\AT\obj/../User/Main.c:53
    DelayMs(1000);
     b04:	3e800513          	li	a0,1000
     b08:	20000097          	auipc	ra,0x20000
     b0c:	982080e7          	jalr	-1662(ra) # 2000048a <mDelaymS>
C:\MRS_DATA\workspace\AT\obj/../User/Main.c:54
        if(is_last_at_res_right())UART3_SendString("csGPok\r\n", 8);
     b10:	371d                	jal	a36 <is_last_at_res_right>
     b12:	c519                	beqz	a0,b20 <connect+0x94>
C:\MRS_DATA\workspace\AT\obj/../User/Main.c:54 (discriminator 1)
     b14:	45a1                	li	a1,8
     b16:	00000517          	auipc	a0,0x0
     b1a:	5b650513          	addi	a0,a0,1462 # 10cc <strlen+0x5e>
     b1e:	21a1                	jal	f66 <UART3_SendString>
C:\MRS_DATA\workspace\AT\obj/../User/Main.c:55
    UART1_SendString("AT+QIACT=1\r\n",12);
     b20:	45b1                	li	a1,12
     b22:	00000517          	auipc	a0,0x0
     b26:	5b650513          	addi	a0,a0,1462 # 10d8 <strlen+0x6a>
     b2a:	2691                	jal	e6e <UART1_SendString>
C:\MRS_DATA\workspace\AT\obj/../User/Main.c:56
    DelayMs(1000);
     b2c:	3e800513          	li	a0,1000
     b30:	20000097          	auipc	ra,0x20000
     b34:	95a080e7          	jalr	-1702(ra) # 2000048a <mDelaymS>
C:\MRS_DATA\workspace\AT\obj/../User/Main.c:57
            if(is_last_at_res_right())UART3_SendString("QIACTok\r\n", 9);
     b38:	3dfd                	jal	a36 <is_last_at_res_right>
     b3a:	c519                	beqz	a0,b48 <connect+0xbc>
C:\MRS_DATA\workspace\AT\obj/../User/Main.c:57 (discriminator 1)
     b3c:	45a5                	li	a1,9
     b3e:	00000517          	auipc	a0,0x0
     b42:	5aa50513          	addi	a0,a0,1450 # 10e8 <strlen+0x7a>
     b46:	2105                	jal	f66 <UART3_SendString>
C:\MRS_DATA\workspace\AT\obj/../User/Main.c:58
            char opentcp[]="AT+QIOPEN=1,0,\"TCP\",\"112.27.250.90\",61135,0,1\r\n";
     b48:	03000613          	li	a2,48
     b4c:	00000597          	auipc	a1,0x0
     b50:	5b458593          	addi	a1,a1,1460 # 1100 <strlen+0x92>
     b54:	850a                	mv	a0,sp
     b56:	218d                	jal	fb8 <memcpy>
C:\MRS_DATA\workspace\AT\obj/../User/Main.c:59
    UART1_SendString(opentcp,strlen(opentcp));
     b58:	850a                	mv	a0,sp
     b5a:	2b11                	jal	106e <strlen>
     b5c:	01051593          	slli	a1,a0,0x10
     b60:	81c1                	srli	a1,a1,0x10
     b62:	850a                	mv	a0,sp
     b64:	2629                	jal	e6e <UART1_SendString>
C:\MRS_DATA\workspace\AT\obj/../User/Main.c:60
    DelayMs(1000);
     b66:	3e800513          	li	a0,1000
     b6a:	20000097          	auipc	ra,0x20000
     b6e:	920080e7          	jalr	-1760(ra) # 2000048a <mDelaymS>
C:\MRS_DATA\workspace\AT\obj/../User/Main.c:61
                    if(is_last_at_res_right()){UART3_SendString("openok\r\n", 8);
     b72:	35d1                	jal	a36 <is_last_at_res_right>
     b74:	c901                	beqz	a0,b84 <connect+0xf8>
C:\MRS_DATA\workspace\AT\obj/../User/Main.c:61 (discriminator 1)
     b76:	00000517          	auipc	a0,0x0
     b7a:	57e50513          	addi	a0,a0,1406 # 10f4 <strlen+0x86>
     b7e:	45a1                	li	a1,8
     b80:	26dd                	jal	f66 <UART3_SendString>
C:\MRS_DATA\workspace\AT\obj/../User/Main.c:62 (discriminator 1)
                    return 1;
     b82:	4505                	li	a0,1
C:\MRS_DATA\workspace\AT\obj/../User/Main.c:66
                    }
                    else {return 0;}

}
     b84:	50f2                	lw	ra,60(sp)
     b86:	6121                	addi	sp,sp,64
     b88:	8082                	ret

00000b8a <main>:
main():
C:\MRS_DATA\workspace\AT\obj/../User/Main.c:68
int main()
{
     b8a:	1141                	addi	sp,sp,-16
C:\MRS_DATA\workspace\AT\obj/../User/Main.c:70

    SetSysClock(CLK_SOURCE_PLL_60MHz);
     b8c:	04800513          	li	a0,72
C:\MRS_DATA\workspace\AT\obj/../User/Main.c:68
{
     b90:	c606                	sw	ra,12(sp)
     b92:	c422                	sw	s0,8(sp)
     b94:	c226                	sw	s1,4(sp)
C:\MRS_DATA\workspace\AT\obj/../User/Main.c:74
    uart1msg.len=0;
    mainmsg.len=0;
    /* 配置串口1：先配置IO口模式，再配置串口 */
    GPIOA_SetBits(GPIO_Pin_9);
     b96:	40001437          	lui	s0,0x40001
C:\MRS_DATA\workspace\AT\obj/../User/Main.c:70
    SetSysClock(CLK_SOURCE_PLL_60MHz);
     b9a:	1ffff097          	auipc	ra,0x1ffff
     b9e:	4f8080e7          	jalr	1272(ra) # 20000092 <SetSysClock>
C:\MRS_DATA\workspace\AT\obj/../User/Main.c:71
    uart1msg.len=0;
     ba2:	9a018823          	sb	zero,-1616(gp) # 20000a88 <uart1msg+0x14>
C:\MRS_DATA\workspace\AT\obj/../User/Main.c:72
    mainmsg.len=0;
     ba6:	98018c23          	sb	zero,-1640(gp) # 20000a70 <mainmsg+0xc8>
C:\MRS_DATA\workspace\AT\obj/../User/Main.c:74
    GPIOA_SetBits(GPIO_Pin_9);
     baa:	0a842783          	lw	a5,168(s0) # 400010a8 <_eusrstack+0x1fffa8a8>
C:\MRS_DATA\workspace\AT\obj/../User/Main.c:75
    GPIOA_ModeCfg(GPIO_Pin_8, GPIO_ModeIN_PU);      // RXD-配置上拉输入
     bae:	4585                	li	a1,1
     bb0:	10000513          	li	a0,256
C:\MRS_DATA\workspace\AT\obj/../User/Main.c:74
    GPIOA_SetBits(GPIO_Pin_9);
     bb4:	2007e793          	ori	a5,a5,512
     bb8:	0af42423          	sw	a5,168(s0)
C:\MRS_DATA\workspace\AT\obj/../User/Main.c:75
    GPIOA_ModeCfg(GPIO_Pin_8, GPIO_ModeIN_PU);      // RXD-配置上拉输入
     bbc:	221d                	jal	ce2 <GPIOA_ModeCfg>
C:\MRS_DATA\workspace\AT\obj/../User/Main.c:76
    GPIOA_ModeCfg(GPIO_Pin_9, GPIO_ModeOut_PP_5mA); // TXD-配置推挽输出，注意先让IO口输出高电平
     bbe:	458d                	li	a1,3
     bc0:	20000513          	li	a0,512
     bc4:	2a39                	jal	ce2 <GPIOA_ModeCfg>
C:\MRS_DATA\workspace\AT\obj/../User/Main.c:77
    UART1_DefInit();
     bc6:	2c0d                	jal	df8 <UART1_DefInit>
C:\MRS_DATA\workspace\AT\obj/../User/Main.c:78
    UART1_ByteTrigCfg(0);
     bc8:	4501                	li	a0,0
     bca:	2485                	jal	e2a <UART1_ByteTrigCfg>
C:\MRS_DATA\workspace\AT\obj/../User/Main.c:79
    UART1_INTCfg(ENABLE, RB_IER_RECV_RDY);
     bcc:	4585                	li	a1,1
     bce:	4505                	li	a0,1
     bd0:	2c95                	jal	e44 <UART1_INTCfg>
PFIC_EnableIRQ():
C:\MRS_DATA\workspace\AT\RVMSIS/core_riscv.h:112
 *
 * @param   IRQn    - Interrupt Numbers
 */
__attribute__((always_inline)) RV_STATIC_INLINE void PFIC_EnableIRQ(IRQn_Type IRQn)
{
    PFIC->IENR[((uint32_t)(IRQn) >> 5)] = (1 << ((uint32_t)(IRQn)&0x1F));
     bd2:	e000e4b7          	lui	s1,0xe000e
     bd6:	080007b7          	lui	a5,0x8000
     bda:	10f4a023          	sw	a5,256(s1) # e000e100 <_eusrstack+0xc0007900>
main():
C:\MRS_DATA\workspace\AT\obj/../User/Main.c:81
    PFIC_EnableIRQ(UART1_IRQn);
    GPIOA_SetBits(GPIO_Pin_5);
     bde:	0a842783          	lw	a5,168(s0)
C:\MRS_DATA\workspace\AT\obj/../User/Main.c:82
    GPIOA_ModeCfg(GPIO_Pin_4, GPIO_ModeIN_PU);      // RXD-配置上拉输入
     be2:	4585                	li	a1,1
     be4:	4541                	li	a0,16
C:\MRS_DATA\workspace\AT\obj/../User/Main.c:81
    GPIOA_SetBits(GPIO_Pin_5);
     be6:	0207e793          	ori	a5,a5,32
     bea:	0af42423          	sw	a5,168(s0)
C:\MRS_DATA\workspace\AT\obj/../User/Main.c:82
    GPIOA_ModeCfg(GPIO_Pin_4, GPIO_ModeIN_PU);      // RXD-配置上拉输入
     bee:	28d5                	jal	ce2 <GPIOA_ModeCfg>
C:\MRS_DATA\workspace\AT\obj/../User/Main.c:83
    GPIOA_ModeCfg(GPIO_Pin_5, GPIO_ModeOut_PP_5mA); // TXD-配置推挽输出，注意先让IO口输出高电平
     bf0:	458d                	li	a1,3
     bf2:	02000513          	li	a0,32
     bf6:	20f5                	jal	ce2 <GPIOA_ModeCfg>
C:\MRS_DATA\workspace\AT\obj/../User/Main.c:84
    UART3_DefInit();
     bf8:	2ce5                	jal	ef0 <UART3_DefInit>
C:\MRS_DATA\workspace\AT\obj/../User/Main.c:85
    UART3_ByteTrigCfg(0);
     bfa:	4501                	li	a0,0
     bfc:	261d                	jal	f22 <UART3_ByteTrigCfg>
C:\MRS_DATA\workspace\AT\obj/../User/Main.c:86
    UART3_INTCfg(ENABLE, RB_IER_RECV_RDY);
     bfe:	4585                	li	a1,1
     c00:	4505                	li	a0,1
     c02:	2e2d                	jal	f3c <UART3_INTCfg>
PFIC_EnableIRQ():
C:\MRS_DATA\workspace\AT\RVMSIS/core_riscv.h:112
     c04:	4791                	li	a5,4
main():
C:\MRS_DATA\workspace\AT\obj/../User/Main.c:88
    PFIC_EnableIRQ(UART3_IRQn);
    DelayMs(5000);
     c06:	6505                	lui	a0,0x1
PFIC_EnableIRQ():
C:\MRS_DATA\workspace\AT\RVMSIS/core_riscv.h:112
     c08:	10f4a223          	sw	a5,260(s1)
main():
C:\MRS_DATA\workspace\AT\obj/../User/Main.c:88
     c0c:	38850513          	addi	a0,a0,904 # 1388 <_data_lma+0x244>
     c10:	20000097          	auipc	ra,0x20000
     c14:	87a080e7          	jalr	-1926(ra) # 2000048a <mDelaymS>
C:\MRS_DATA\workspace\AT\obj/../User/Main.c:89
    connect();
     c18:	3d95                	jal	a8c <connect>
C:\MRS_DATA\workspace\AT\obj/../User/Main.c:91 (discriminator 1)
while(1)
{}//UART3_SendString(mainmsg.data, nowprt);memset(mainmsg.data,0,200);nowprt=0;DelayMs(1000);}
     c1a:	a001                	j	c1a <main+0x90>

00000c1c <UART1_IRQHandler>:
UART1_IRQHandler():
C:\MRS_DATA\workspace\AT\obj/../User/Main.c:97
}

__INTERRUPT
void UART1_IRQHandler(void)
{
    switch(UART1_GetITFlag())
     c1c:	40003737          	lui	a4,0x40003
     c20:	40474783          	lbu	a5,1028(a4) # 40003404 <_eusrstack+0x1fffcc04>
     c24:	4699                	li	a3,6
     c26:	8bbd                	andi	a5,a5,15
     c28:	06d78b63          	beq	a5,a3,c9e <UART1_IRQHandler+0x82>
     c2c:	4731                	li	a4,12
     c2e:	00e78563          	beq	a5,a4,c38 <UART1_IRQHandler+0x1c>
     c32:	4711                	li	a4,4
     c34:	06e79963          	bne	a5,a4,ca6 <UART1_IRQHandler+0x8a>
C:\MRS_DATA\workspace\AT\obj/../User/Main.c:96
{
     c38:	1141                	addi	sp,sp,-16
C:\MRS_DATA\workspace\AT\obj/../User/Main.c:108
            break;

        case UART_II_RECV_RDY:
        case UART_II_RECV_TOUT:// 接收超时，暂时一帧数据接收完成

            len0=UART1_RecvString(uart1msg.data);
     c3a:	99c18513          	addi	a0,gp,-1636 # 20000a74 <uart1msg>
C:\MRS_DATA\workspace\AT\obj/../User/Main.c:96
{
     c3e:	c622                	sw	s0,12(sp)
     c40:	c426                	sw	s1,8(sp)
     c42:	c24a                	sw	s2,4(sp)
C:\MRS_DATA\workspace\AT\obj/../User/Main.c:108
            len0=UART1_RecvString(uart1msg.data);
     c44:	2c89                	jal	e96 <UART1_RecvString>
     c46:	0ff57413          	andi	s0,a0,255
C:\MRS_DATA\workspace\AT\obj/../User/Main.c:109
            memcpy(&mainmsg.data[nowprt],&uart1msg.data,len0);
     c4a:	20000917          	auipc	s2,0x20000
     c4e:	c8f94903          	lbu	s2,-881(s2) # 200008d9 <nowprt>
     c52:	8d018493          	addi	s1,gp,-1840 # 200009a8 <mainmsg>
C:\MRS_DATA\workspace\AT\obj/../User/Main.c:108
            len0=UART1_RecvString(uart1msg.data);
     c56:	20000797          	auipc	a5,0x20000
     c5a:	c8878123          	sb	s0,-894(a5) # 200008d8 <_highcode_vma_end>
C:\MRS_DATA\workspace\AT\obj/../User/Main.c:109
            memcpy(&mainmsg.data[nowprt],&uart1msg.data,len0);
     c5e:	01248533          	add	a0,s1,s2
     c62:	8622                	mv	a2,s0
     c64:	99c18593          	addi	a1,gp,-1636 # 20000a74 <uart1msg>
C:\MRS_DATA\workspace\AT\obj/../User/Main.c:110
            nowprt+=len0;
     c68:	944a                	add	s0,s0,s2
C:\MRS_DATA\workspace\AT\obj/../User/Main.c:109
            memcpy(&mainmsg.data[nowprt],&uart1msg.data,len0);
     c6a:	26b9                	jal	fb8 <memcpy>
C:\MRS_DATA\workspace\AT\obj/../User/Main.c:110
            nowprt+=len0;
     c6c:	20000797          	auipc	a5,0x20000
     c70:	c68786a3          	sb	s0,-915(a5) # 200008d9 <nowprt>
C:\MRS_DATA\workspace\AT\obj/../User/Main.c:111
            mainmsg.len++;
     c74:	0c84c783          	lbu	a5,200(s1)
C:\MRS_DATA\workspace\AT\obj/../User/Main.c:124
            break;

        default:
            break;
    }
}
     c78:	4432                	lw	s0,12(sp)
     c7a:	44a2                	lw	s1,8(sp)
C:\MRS_DATA\workspace\AT\obj/../User/Main.c:111
            mainmsg.len++;
     c7c:	0785                	addi	a5,a5,1
     c7e:	98f18c23          	sb	a5,-1640(gp) # 20000a70 <mainmsg+0xc8>
C:\MRS_DATA\workspace\AT\obj/../User/Main.c:112
            memset(uart1msg.data,0,20);
     c82:	9801ae23          	sw	zero,-1636(gp) # 20000a74 <uart1msg>
     c86:	9a01a023          	sw	zero,-1632(gp) # 20000a78 <uart1msg+0x4>
     c8a:	9a01a223          	sw	zero,-1628(gp) # 20000a7c <uart1msg+0x8>
     c8e:	9a01a423          	sw	zero,-1624(gp) # 20000a80 <uart1msg+0xc>
     c92:	9a01a623          	sw	zero,-1620(gp) # 20000a84 <uart1msg+0x10>
C:\MRS_DATA\workspace\AT\obj/../User/Main.c:124
}
     c96:	4912                	lw	s2,4(sp)
     c98:	0141                	addi	sp,sp,16
     c9a:	30200073          	mret
C:\MRS_DATA\workspace\AT\obj/../User/Main.c:101
            UART1_GetLinSTA();
     c9e:	40574783          	lbu	a5,1029(a4)
C:\MRS_DATA\workspace\AT\obj/../User/Main.c:103
            break;
     ca2:	30200073          	mret
     ca6:	30200073          	mret

00000caa <UART3_IRQHandler>:
UART3_IRQHandler():
C:\MRS_DATA\workspace\AT\obj/../User/Main.c:131


__INTERRUPT
void UART3_IRQHandler(void)
{
    if(UART3_GetITFlag()==UART_II_RECV_RDY)
     caa:	400047b7          	lui	a5,0x40004
     cae:	c047c783          	lbu	a5,-1020(a5) # 40003c04 <_eusrstack+0x1fffd404>
     cb2:	4711                	li	a4,4
     cb4:	8bbd                	andi	a5,a5,15
     cb6:	02e79463          	bne	a5,a4,cde <UART3_IRQHandler+0x34>
C:\MRS_DATA\workspace\AT\obj/../User/Main.c:133
    {
        UART3_RecvString(RxBuff);
     cba:	80818513          	addi	a0,gp,-2040 # 200008e0 <RxBuff>
     cbe:	2cc1                	jal	f8e <UART3_RecvString>
C:\MRS_DATA\workspace\AT\obj/../User/Main.c:134
        UART1_SendString(RxBuff, strlen(RxBuff));
     cc0:	80818513          	addi	a0,gp,-2040 # 200008e0 <RxBuff>
     cc4:	266d                	jal	106e <strlen>
     cc6:	01051593          	slli	a1,a0,0x10
     cca:	81c1                	srli	a1,a1,0x10
     ccc:	80818513          	addi	a0,gp,-2040 # 200008e0 <RxBuff>
     cd0:	2a79                	jal	e6e <UART1_SendString>
C:\MRS_DATA\workspace\AT\obj/../User/Main.c:135
        memset(RxBuff,0,200);
     cd2:	0c800613          	li	a2,200
     cd6:	4581                	li	a1,0
     cd8:	80818513          	addi	a0,gp,-2040 # 200008e0 <RxBuff>
     cdc:	394d                	jal	98e <memset>
C:\MRS_DATA\workspace\AT\obj/../User/Main.c:137
    }
}
     cde:	30200073          	mret

00000ce2 <GPIOA_ModeCfg>:
GPIOA_ModeCfg():
C:\MRS_DATA\workspace\AT\obj/../StdPeriphDriver/CH59x_gpio.c:27
 *
 * @return  none
 */
void GPIOA_ModeCfg(uint32_t pin, GPIOModeTypeDef mode)
{
    switch(mode)
     ce2:	4791                	li	a5,4
     ce4:	02b7ee63          	bltu	a5,a1,d20 <GPIOA_ModeCfg+0x3e>
     ce8:	00000717          	auipc	a4,0x0
     cec:	44870713          	addi	a4,a4,1096 # 1130 <strlen+0xc2>
     cf0:	058a                	slli	a1,a1,0x2
     cf2:	95ba                	add	a1,a1,a4
     cf4:	419c                	lw	a5,0(a1)
     cf6:	97ba                	add	a5,a5,a4
     cf8:	8782                	jr	a5
C:\MRS_DATA\workspace\AT\obj/../StdPeriphDriver/CH59x_gpio.c:30
    {
        case GPIO_ModeIN_Floating:
            R32_PA_PD_DRV &= ~pin;
     cfa:	400017b7          	lui	a5,0x40001
     cfe:	0b47a703          	lw	a4,180(a5) # 400010b4 <_eusrstack+0x1fffa8b4>
     d02:	fff54513          	not	a0,a0
     d06:	8f69                	and	a4,a4,a0
     d08:	0ae7aa23          	sw	a4,180(a5)
C:\MRS_DATA\workspace\AT\obj/../StdPeriphDriver/CH59x_gpio.c:31
            R32_PA_PU &= ~pin;
     d0c:	0b07a703          	lw	a4,176(a5)
C:\MRS_DATA\workspace\AT\obj/../StdPeriphDriver/CH59x_gpio.c:43
            R32_PA_DIR &= ~pin;
            break;

        case GPIO_ModeIN_PD:
            R32_PA_PD_DRV |= pin;
            R32_PA_PU &= ~pin;
     d10:	8f69                	and	a4,a4,a0
     d12:	0ae7a823          	sw	a4,176(a5)
C:\MRS_DATA\workspace\AT\obj/../StdPeriphDriver/CH59x_gpio.c:44
            R32_PA_DIR &= ~pin;
     d16:	0a07a703          	lw	a4,160(a5)
     d1a:	8d79                	and	a0,a0,a4
C:\MRS_DATA\workspace\AT\obj/../StdPeriphDriver/CH59x_gpio.c:54
            R32_PA_DIR |= pin;
            break;

        case GPIO_ModeOut_PP_20mA:
            R32_PA_PD_DRV |= pin;
            R32_PA_DIR |= pin;
     d1c:	0aa7a023          	sw	a0,160(a5)
C:\MRS_DATA\workspace\AT\obj/../StdPeriphDriver/CH59x_gpio.c:60
            break;

        default:
            break;
    }
}
     d20:	8082                	ret
C:\MRS_DATA\workspace\AT\obj/../StdPeriphDriver/CH59x_gpio.c:36
            R32_PA_PD_DRV &= ~pin;
     d22:	400017b7          	lui	a5,0x40001
     d26:	0b47a683          	lw	a3,180(a5) # 400010b4 <_eusrstack+0x1fffa8b4>
     d2a:	fff54713          	not	a4,a0
     d2e:	8ef9                	and	a3,a3,a4
     d30:	0ad7aa23          	sw	a3,180(a5)
C:\MRS_DATA\workspace\AT\obj/../StdPeriphDriver/CH59x_gpio.c:37
            R32_PA_PU |= pin;
     d34:	0b07a683          	lw	a3,176(a5)
     d38:	8d55                	or	a0,a0,a3
     d3a:	0aa7a823          	sw	a0,176(a5)
C:\MRS_DATA\workspace\AT\obj/../StdPeriphDriver/CH59x_gpio.c:38
            R32_PA_DIR &= ~pin;
     d3e:	0a07a683          	lw	a3,160(a5)
     d42:	8f75                	and	a4,a4,a3
     d44:	0ae7a023          	sw	a4,160(a5)
C:\MRS_DATA\workspace\AT\obj/../StdPeriphDriver/CH59x_gpio.c:39
            break;
     d48:	8082                	ret
C:\MRS_DATA\workspace\AT\obj/../StdPeriphDriver/CH59x_gpio.c:42
            R32_PA_PD_DRV |= pin;
     d4a:	400017b7          	lui	a5,0x40001
     d4e:	0b47a703          	lw	a4,180(a5) # 400010b4 <_eusrstack+0x1fffa8b4>
     d52:	8f49                	or	a4,a4,a0
     d54:	0ae7aa23          	sw	a4,180(a5)
C:\MRS_DATA\workspace\AT\obj/../StdPeriphDriver/CH59x_gpio.c:43
            R32_PA_PU &= ~pin;
     d58:	0b07a703          	lw	a4,176(a5)
     d5c:	fff54513          	not	a0,a0
     d60:	bf45                	j	d10 <GPIOA_ModeCfg+0x2e>
C:\MRS_DATA\workspace\AT\obj/../StdPeriphDriver/CH59x_gpio.c:48
            R32_PA_PD_DRV &= ~pin;
     d62:	400017b7          	lui	a5,0x40001
     d66:	0b47a683          	lw	a3,180(a5) # 400010b4 <_eusrstack+0x1fffa8b4>
     d6a:	fff54713          	not	a4,a0
     d6e:	8f75                	and	a4,a4,a3
C:\MRS_DATA\workspace\AT\obj/../StdPeriphDriver/CH59x_gpio.c:53
            R32_PA_PD_DRV |= pin;
     d70:	0ae7aa23          	sw	a4,180(a5)
C:\MRS_DATA\workspace\AT\obj/../StdPeriphDriver/CH59x_gpio.c:54
            R32_PA_DIR |= pin;
     d74:	0a07a703          	lw	a4,160(a5)
     d78:	8d59                	or	a0,a0,a4
     d7a:	b74d                	j	d1c <GPIOA_ModeCfg+0x3a>
C:\MRS_DATA\workspace\AT\obj/../StdPeriphDriver/CH59x_gpio.c:53
            R32_PA_PD_DRV |= pin;
     d7c:	400017b7          	lui	a5,0x40001
     d80:	0b47a703          	lw	a4,180(a5) # 400010b4 <_eusrstack+0x1fffa8b4>
     d84:	8f49                	or	a4,a4,a0
     d86:	b7ed                	j	d70 <GPIOA_ModeCfg+0x8e>

00000d88 <GetSysClock>:
GetSysClock():
C:\MRS_DATA\workspace\AT\obj/../StdPeriphDriver/CH59x_sys.c:84
    rev = R32_CLK_SYS_CFG & 0xff;
     d88:	400017b7          	lui	a5,0x40001
     d8c:	4788                	lw	a0,8(a5)
     d8e:	0542                	slli	a0,a0,0x10
     d90:	8141                	srli	a0,a0,0x10
C:\MRS_DATA\workspace\AT\obj/../StdPeriphDriver/CH59x_sys.c:85
    if((rev & 0x40) == (0 << 6))
     d92:	04057793          	andi	a5,a0,64
     d96:	eb91                	bnez	a5,daa <GetSysClock+0x22>
C:\MRS_DATA\workspace\AT\obj/../StdPeriphDriver/CH59x_sys.c:87
        return (32000000 / (rev & 0x1f));
     d98:	01f57793          	andi	a5,a0,31
     d9c:	01e85537          	lui	a0,0x1e85
C:\MRS_DATA\workspace\AT\obj/../StdPeriphDriver/CH59x_sys.c:91
        return (480000000 / (rev & 0x1f));
     da0:	80050513          	addi	a0,a0,-2048 # 1e84800 <_data_lma+0x1e836bc>
     da4:	02f54533          	div	a0,a0,a5
     da8:	8082                	ret
C:\MRS_DATA\workspace\AT\obj/../StdPeriphDriver/CH59x_sys.c:89
    else if((rev & RB_CLK_SYS_MOD) == (1 << 6))
     daa:	0c057793          	andi	a5,a0,192
     dae:	04000713          	li	a4,64
     db2:	00e79763          	bne	a5,a4,dc0 <GetSysClock+0x38>
C:\MRS_DATA\workspace\AT\obj/../StdPeriphDriver/CH59x_sys.c:91
        return (480000000 / (rev & 0x1f));
     db6:	01f57793          	andi	a5,a0,31
     dba:	1c9c4537          	lui	a0,0x1c9c4
     dbe:	b7cd                	j	da0 <GetSysClock+0x18>
C:\MRS_DATA\workspace\AT\obj/../StdPeriphDriver/CH59x_sys.c:95
        return (32000);
     dc0:	6521                	lui	a0,0x8
     dc2:	d0050513          	addi	a0,a0,-768 # 7d00 <_data_lma+0x6bbc>
C:\MRS_DATA\workspace\AT\obj/../StdPeriphDriver/CH59x_sys.c:97
}
     dc6:	8082                	ret

00000dc8 <UART1_BaudRateCfg>:
UART1_BaudRateCfg():
C:\MRS_DATA\workspace\AT\obj/../StdPeriphDriver/CH59x_uart1.c:43
 * @param   baudrate    - 波特率
 *
 * @return  none
 */
void UART1_BaudRateCfg(uint32_t baudrate)
{
     dc8:	1141                	addi	sp,sp,-16
     dca:	c422                	sw	s0,8(sp)
     dcc:	c606                	sw	ra,12(sp)
     dce:	842a                	mv	s0,a0
C:\MRS_DATA\workspace\AT\obj/../StdPeriphDriver/CH59x_uart1.c:46
    uint32_t x;

    x = 10 * GetSysClock() / 8 / baudrate;
     dd0:	3f65                	jal	d88 <GetSysClock>
     dd2:	4729                	li	a4,10
     dd4:	02e507b3          	mul	a5,a0,a4
C:\MRS_DATA\workspace\AT\obj/../StdPeriphDriver/CH59x_uart1.c:49
    x = (x + 5) / 10;
    R16_UART1_DL = (uint16_t)x;
}
     dd8:	40b2                	lw	ra,12(sp)
C:\MRS_DATA\workspace\AT\obj/../StdPeriphDriver/CH59x_uart1.c:46
    x = 10 * GetSysClock() / 8 / baudrate;
     dda:	838d                	srli	a5,a5,0x3
     ddc:	0287d7b3          	divu	a5,a5,s0
C:\MRS_DATA\workspace\AT\obj/../StdPeriphDriver/CH59x_uart1.c:49
}
     de0:	4422                	lw	s0,8(sp)
C:\MRS_DATA\workspace\AT\obj/../StdPeriphDriver/CH59x_uart1.c:47
    x = (x + 5) / 10;
     de2:	0795                	addi	a5,a5,5
     de4:	02e7d7b3          	divu	a5,a5,a4
C:\MRS_DATA\workspace\AT\obj/../StdPeriphDriver/CH59x_uart1.c:48
    R16_UART1_DL = (uint16_t)x;
     de8:	40003737          	lui	a4,0x40003
     dec:	07c2                	slli	a5,a5,0x10
     dee:	83c1                	srli	a5,a5,0x10
     df0:	40f71623          	sh	a5,1036(a4) # 4000340c <_eusrstack+0x1fffcc0c>
C:\MRS_DATA\workspace\AT\obj/../StdPeriphDriver/CH59x_uart1.c:49
}
     df4:	0141                	addi	sp,sp,16
     df6:	8082                	ret

00000df8 <UART1_DefInit>:
UART1_DefInit():
C:\MRS_DATA\workspace\AT\obj/../StdPeriphDriver/CH59x_uart1.c:26
    UART1_BaudRateCfg(115200);
     df8:	6571                	lui	a0,0x1c
C:\MRS_DATA\workspace\AT\obj/../StdPeriphDriver/CH59x_uart1.c:25
{
     dfa:	1141                	addi	sp,sp,-16
C:\MRS_DATA\workspace\AT\obj/../StdPeriphDriver/CH59x_uart1.c:26
    UART1_BaudRateCfg(115200);
     dfc:	20050513          	addi	a0,a0,512 # 1c200 <_data_lma+0x1b0bc>
C:\MRS_DATA\workspace\AT\obj/../StdPeriphDriver/CH59x_uart1.c:25
{
     e00:	c606                	sw	ra,12(sp)
C:\MRS_DATA\workspace\AT\obj/../StdPeriphDriver/CH59x_uart1.c:26
    UART1_BaudRateCfg(115200);
     e02:	37d9                	jal	dc8 <UART1_BaudRateCfg>
C:\MRS_DATA\workspace\AT\obj/../StdPeriphDriver/CH59x_uart1.c:27
    R8_UART1_FCR = (2 << 6) | RB_FCR_TX_FIFO_CLR | RB_FCR_RX_FIFO_CLR | RB_FCR_FIFO_EN; // FIFO打开，触发点4字节
     e04:	400037b7          	lui	a5,0x40003
     e08:	f8700713          	li	a4,-121
     e0c:	40e78123          	sb	a4,1026(a5) # 40003402 <_eusrstack+0x1fffcc02>
C:\MRS_DATA\workspace\AT\obj/../StdPeriphDriver/CH59x_uart1.c:28
    R8_UART1_LCR = RB_LCR_WORD_SZ;
     e10:	470d                	li	a4,3
     e12:	40e781a3          	sb	a4,1027(a5)
C:\MRS_DATA\workspace\AT\obj/../StdPeriphDriver/CH59x_uart1.c:29
    R8_UART1_IER = RB_IER_TXD_EN;
     e16:	04000713          	li	a4,64
     e1a:	40e780a3          	sb	a4,1025(a5)
C:\MRS_DATA\workspace\AT\obj/../StdPeriphDriver/CH59x_uart1.c:30
    R8_UART1_DIV = 1;
     e1e:	4705                	li	a4,1
     e20:	40e78723          	sb	a4,1038(a5)
C:\MRS_DATA\workspace\AT\obj/../StdPeriphDriver/CH59x_uart1.c:31
}
     e24:	40b2                	lw	ra,12(sp)
     e26:	0141                	addi	sp,sp,16
     e28:	8082                	ret

00000e2a <UART1_ByteTrigCfg>:
UART1_ByteTrigCfg():
C:\MRS_DATA\workspace\AT\obj/../StdPeriphDriver/CH59x_uart1.c:62
 *
 * @return  none
 */
void UART1_ByteTrigCfg(UARTByteTRIGTypeDef b)
{
    R8_UART1_FCR = (R8_UART1_FCR & ~RB_FCR_FIFO_TRIG) | (b << 6);
     e2a:	40003737          	lui	a4,0x40003
     e2e:	40274783          	lbu	a5,1026(a4) # 40003402 <_eusrstack+0x1fffcc02>
     e32:	051a                	slli	a0,a0,0x6
     e34:	03f7f793          	andi	a5,a5,63
     e38:	8fc9                	or	a5,a5,a0
     e3a:	0ff7f793          	andi	a5,a5,255
     e3e:	40f70123          	sb	a5,1026(a4)
C:\MRS_DATA\workspace\AT\obj/../StdPeriphDriver/CH59x_uart1.c:63
}
     e42:	8082                	ret

00000e44 <UART1_INTCfg>:
UART1_INTCfg():
C:\MRS_DATA\workspace\AT\obj/../StdPeriphDriver/CH59x_uart1.c:83
 */
void UART1_INTCfg(FunctionalState s, uint8_t i)
{
    if(s)
    {
        R8_UART1_IER |= i;
     e44:	400037b7          	lui	a5,0x40003
     e48:	4017c703          	lbu	a4,1025(a5) # 40003401 <_eusrstack+0x1fffcc01>
C:\MRS_DATA\workspace\AT\obj/../StdPeriphDriver/CH59x_uart1.c:81
    if(s)
     e4c:	c919                	beqz	a0,e62 <UART1_INTCfg+0x1e>
C:\MRS_DATA\workspace\AT\obj/../StdPeriphDriver/CH59x_uart1.c:83
        R8_UART1_IER |= i;
     e4e:	8dd9                	or	a1,a1,a4
     e50:	40b780a3          	sb	a1,1025(a5)
C:\MRS_DATA\workspace\AT\obj/../StdPeriphDriver/CH59x_uart1.c:84
        R8_UART1_MCR |= RB_MCR_INT_OE;
     e54:	4007c703          	lbu	a4,1024(a5)
     e58:	00876713          	ori	a4,a4,8
     e5c:	40e78023          	sb	a4,1024(a5)
     e60:	8082                	ret
C:\MRS_DATA\workspace\AT\obj/../StdPeriphDriver/CH59x_uart1.c:88
    }
    else
    {
        R8_UART1_IER &= ~i;
     e62:	fff5c593          	not	a1,a1
     e66:	8df9                	and	a1,a1,a4
     e68:	40b780a3          	sb	a1,1025(a5)
C:\MRS_DATA\workspace\AT\obj/../StdPeriphDriver/CH59x_uart1.c:90
    }
}
     e6c:	8082                	ret

00000e6e <UART1_SendString>:
UART1_SendString():
C:\MRS_DATA\workspace\AT\obj/../StdPeriphDriver/CH59x_uart1.c:122
{
    uint16_t len = l;

    while(len)
    {
        if(R8_UART1_TFC != UART_FIFO_SIZE)
     e6e:	400037b7          	lui	a5,0x40003
     e72:	4721                	li	a4,8
     e74:	400036b7          	lui	a3,0x40003
C:\MRS_DATA\workspace\AT\obj/../StdPeriphDriver/CH59x_uart1.c:120
    while(len)
     e78:	e191                	bnez	a1,e7c <UART1_SendString+0xe>
C:\MRS_DATA\workspace\AT\obj/../StdPeriphDriver/CH59x_uart1.c:128
        {
            R8_UART1_THR = *buf++;
            len--;
        }
    }
}
     e7a:	8082                	ret
C:\MRS_DATA\workspace\AT\obj/../StdPeriphDriver/CH59x_uart1.c:122
        if(R8_UART1_TFC != UART_FIFO_SIZE)
     e7c:	40b7c603          	lbu	a2,1035(a5) # 4000340b <_eusrstack+0x1fffcc0b>
     e80:	fec70ce3          	beq	a4,a2,e78 <UART1_SendString+0xa>
C:\MRS_DATA\workspace\AT\obj/../StdPeriphDriver/CH59x_uart1.c:124
            R8_UART1_THR = *buf++;
     e84:	0505                	addi	a0,a0,1
     e86:	fff54603          	lbu	a2,-1(a0)
C:\MRS_DATA\workspace\AT\obj/../StdPeriphDriver/CH59x_uart1.c:125
            len--;
     e8a:	15fd                	addi	a1,a1,-1
     e8c:	05c2                	slli	a1,a1,0x10
C:\MRS_DATA\workspace\AT\obj/../StdPeriphDriver/CH59x_uart1.c:124
            R8_UART1_THR = *buf++;
     e8e:	40c68423          	sb	a2,1032(a3) # 40003408 <_eusrstack+0x1fffcc08>
C:\MRS_DATA\workspace\AT\obj/../StdPeriphDriver/CH59x_uart1.c:125
            len--;
     e92:	81c1                	srli	a1,a1,0x10
     e94:	b7d5                	j	e78 <UART1_SendString+0xa>

00000e96 <UART1_RecvString>:
UART1_RecvString():
C:\MRS_DATA\workspace\AT\obj/../StdPeriphDriver/CH59x_uart1.c:143
 */
uint16_t UART1_RecvString(uint8_t *buf)
{
    uint16_t len = 0;

    while(R8_UART1_RFC)
     e96:	4781                	li	a5,0
     e98:	400036b7          	lui	a3,0x40003
     e9c:	40a6c703          	lbu	a4,1034(a3) # 4000340a <_eusrstack+0x1fffcc0a>
     ea0:	01079613          	slli	a2,a5,0x10
     ea4:	8241                	srli	a2,a2,0x10
     ea6:	0ff77713          	andi	a4,a4,255
     eaa:	e319                	bnez	a4,eb0 <UART1_RecvString+0x1a>
C:\MRS_DATA\workspace\AT\obj/../StdPeriphDriver/CH59x_uart1.c:150
        *buf++ = R8_UART1_RBR;
        len++;
    }

    return (len);
}
     eac:	8532                	mv	a0,a2
     eae:	8082                	ret
C:\MRS_DATA\workspace\AT\obj/../StdPeriphDriver/CH59x_uart1.c:145
        *buf++ = R8_UART1_RBR;
     eb0:	4086c603          	lbu	a2,1032(a3)
     eb4:	00f50733          	add	a4,a0,a5
     eb8:	0785                	addi	a5,a5,1
     eba:	00c70023          	sb	a2,0(a4)
C:\MRS_DATA\workspace\AT\obj/../StdPeriphDriver/CH59x_uart1.c:146
        len++;
     ebe:	bff9                	j	e9c <UART1_RecvString+0x6>

00000ec0 <UART3_BaudRateCfg>:
UART3_BaudRateCfg():
C:\MRS_DATA\workspace\AT\obj/../StdPeriphDriver/CH59x_uart3.c:43
 * @param   baudrate    - 波特率
 *
 * @return  none
 */
void UART3_BaudRateCfg(uint32_t baudrate)
{
     ec0:	1141                	addi	sp,sp,-16
     ec2:	c422                	sw	s0,8(sp)
     ec4:	c606                	sw	ra,12(sp)
     ec6:	842a                	mv	s0,a0
C:\MRS_DATA\workspace\AT\obj/../StdPeriphDriver/CH59x_uart3.c:46
    uint32_t x;

    x = 10 * GetSysClock() / 8 / baudrate;
     ec8:	35c1                	jal	d88 <GetSysClock>
     eca:	4729                	li	a4,10
     ecc:	02e507b3          	mul	a5,a0,a4
C:\MRS_DATA\workspace\AT\obj/../StdPeriphDriver/CH59x_uart3.c:49
    x = (x + 5) / 10;
    R16_UART3_DL = (uint16_t)x;
}
     ed0:	40b2                	lw	ra,12(sp)
C:\MRS_DATA\workspace\AT\obj/../StdPeriphDriver/CH59x_uart3.c:46
    x = 10 * GetSysClock() / 8 / baudrate;
     ed2:	838d                	srli	a5,a5,0x3
     ed4:	0287d7b3          	divu	a5,a5,s0
C:\MRS_DATA\workspace\AT\obj/../StdPeriphDriver/CH59x_uart3.c:49
}
     ed8:	4422                	lw	s0,8(sp)
C:\MRS_DATA\workspace\AT\obj/../StdPeriphDriver/CH59x_uart3.c:47
    x = (x + 5) / 10;
     eda:	0795                	addi	a5,a5,5
     edc:	02e7d7b3          	divu	a5,a5,a4
C:\MRS_DATA\workspace\AT\obj/../StdPeriphDriver/CH59x_uart3.c:48
    R16_UART3_DL = (uint16_t)x;
     ee0:	40004737          	lui	a4,0x40004
     ee4:	07c2                	slli	a5,a5,0x10
     ee6:	83c1                	srli	a5,a5,0x10
     ee8:	c0f71623          	sh	a5,-1012(a4) # 40003c0c <_eusrstack+0x1fffd40c>
C:\MRS_DATA\workspace\AT\obj/../StdPeriphDriver/CH59x_uart3.c:49
}
     eec:	0141                	addi	sp,sp,16
     eee:	8082                	ret

00000ef0 <UART3_DefInit>:
UART3_DefInit():
C:\MRS_DATA\workspace\AT\obj/../StdPeriphDriver/CH59x_uart3.c:26
    UART3_BaudRateCfg(115200);
     ef0:	6571                	lui	a0,0x1c
C:\MRS_DATA\workspace\AT\obj/../StdPeriphDriver/CH59x_uart3.c:25
{
     ef2:	1141                	addi	sp,sp,-16
C:\MRS_DATA\workspace\AT\obj/../StdPeriphDriver/CH59x_uart3.c:26
    UART3_BaudRateCfg(115200);
     ef4:	20050513          	addi	a0,a0,512 # 1c200 <_data_lma+0x1b0bc>
C:\MRS_DATA\workspace\AT\obj/../StdPeriphDriver/CH59x_uart3.c:25
{
     ef8:	c606                	sw	ra,12(sp)
C:\MRS_DATA\workspace\AT\obj/../StdPeriphDriver/CH59x_uart3.c:26
    UART3_BaudRateCfg(115200);
     efa:	37d9                	jal	ec0 <UART3_BaudRateCfg>
C:\MRS_DATA\workspace\AT\obj/../StdPeriphDriver/CH59x_uart3.c:27
    R8_UART3_FCR = (2 << 6) | RB_FCR_TX_FIFO_CLR | RB_FCR_RX_FIFO_CLR | RB_FCR_FIFO_EN; // FIFO打开，触发点4字节
     efc:	400047b7          	lui	a5,0x40004
     f00:	f8700713          	li	a4,-121
     f04:	c0e78123          	sb	a4,-1022(a5) # 40003c02 <_eusrstack+0x1fffd402>
C:\MRS_DATA\workspace\AT\obj/../StdPeriphDriver/CH59x_uart3.c:28
    R8_UART3_LCR = RB_LCR_WORD_SZ;
     f08:	470d                	li	a4,3
     f0a:	c0e781a3          	sb	a4,-1021(a5)
C:\MRS_DATA\workspace\AT\obj/../StdPeriphDriver/CH59x_uart3.c:29
    R8_UART3_IER = RB_IER_TXD_EN;
     f0e:	04000713          	li	a4,64
     f12:	c0e780a3          	sb	a4,-1023(a5)
C:\MRS_DATA\workspace\AT\obj/../StdPeriphDriver/CH59x_uart3.c:30
    R8_UART3_DIV = 1;
     f16:	4705                	li	a4,1
     f18:	c0e78723          	sb	a4,-1010(a5)
C:\MRS_DATA\workspace\AT\obj/../StdPeriphDriver/CH59x_uart3.c:31
}
     f1c:	40b2                	lw	ra,12(sp)
     f1e:	0141                	addi	sp,sp,16
     f20:	8082                	ret

00000f22 <UART3_ByteTrigCfg>:
UART3_ByteTrigCfg():
C:\MRS_DATA\workspace\AT\obj/../StdPeriphDriver/CH59x_uart3.c:62
 *
 * @return  none
 */
void UART3_ByteTrigCfg(UARTByteTRIGTypeDef b)
{
    R8_UART3_FCR = (R8_UART3_FCR & ~RB_FCR_FIFO_TRIG) | (b << 6);
     f22:	40004737          	lui	a4,0x40004
     f26:	c0274783          	lbu	a5,-1022(a4) # 40003c02 <_eusrstack+0x1fffd402>
     f2a:	051a                	slli	a0,a0,0x6
     f2c:	03f7f793          	andi	a5,a5,63
     f30:	8fc9                	or	a5,a5,a0
     f32:	0ff7f793          	andi	a5,a5,255
     f36:	c0f70123          	sb	a5,-1022(a4)
C:\MRS_DATA\workspace\AT\obj/../StdPeriphDriver/CH59x_uart3.c:63
}
     f3a:	8082                	ret

00000f3c <UART3_INTCfg>:
UART3_INTCfg():
C:\MRS_DATA\workspace\AT\obj/../StdPeriphDriver/CH59x_uart3.c:83
 */
void UART3_INTCfg(FunctionalState s, uint8_t i)
{
    if(s)
    {
        R8_UART3_IER |= i;
     f3c:	400047b7          	lui	a5,0x40004
     f40:	c017c703          	lbu	a4,-1023(a5) # 40003c01 <_eusrstack+0x1fffd401>
C:\MRS_DATA\workspace\AT\obj/../StdPeriphDriver/CH59x_uart3.c:81
    if(s)
     f44:	c919                	beqz	a0,f5a <UART3_INTCfg+0x1e>
C:\MRS_DATA\workspace\AT\obj/../StdPeriphDriver/CH59x_uart3.c:83
        R8_UART3_IER |= i;
     f46:	8dd9                	or	a1,a1,a4
     f48:	c0b780a3          	sb	a1,-1023(a5)
C:\MRS_DATA\workspace\AT\obj/../StdPeriphDriver/CH59x_uart3.c:84
        R8_UART3_MCR |= RB_MCR_INT_OE;
     f4c:	c007c703          	lbu	a4,-1024(a5)
     f50:	00876713          	ori	a4,a4,8
     f54:	c0e78023          	sb	a4,-1024(a5)
     f58:	8082                	ret
C:\MRS_DATA\workspace\AT\obj/../StdPeriphDriver/CH59x_uart3.c:88
    }
    else
    {
        R8_UART3_IER &= ~i;
     f5a:	fff5c593          	not	a1,a1
     f5e:	8df9                	and	a1,a1,a4
     f60:	c0b780a3          	sb	a1,-1023(a5)
C:\MRS_DATA\workspace\AT\obj/../StdPeriphDriver/CH59x_uart3.c:90
    }
}
     f64:	8082                	ret

00000f66 <UART3_SendString>:
UART3_SendString():
C:\MRS_DATA\workspace\AT\obj/../StdPeriphDriver/CH59x_uart3.c:122
{
    uint16_t len = l;

    while(len)
    {
        if(R8_UART3_TFC != UART_FIFO_SIZE)
     f66:	400047b7          	lui	a5,0x40004
     f6a:	4721                	li	a4,8
     f6c:	400046b7          	lui	a3,0x40004
C:\MRS_DATA\workspace\AT\obj/../StdPeriphDriver/CH59x_uart3.c:120
    while(len)
     f70:	e191                	bnez	a1,f74 <UART3_SendString+0xe>
C:\MRS_DATA\workspace\AT\obj/../StdPeriphDriver/CH59x_uart3.c:128
        {
            R8_UART3_THR = *buf++;
            len--;
        }
    }
}
     f72:	8082                	ret
C:\MRS_DATA\workspace\AT\obj/../StdPeriphDriver/CH59x_uart3.c:122
        if(R8_UART3_TFC != UART_FIFO_SIZE)
     f74:	c0b7c603          	lbu	a2,-1013(a5) # 40003c0b <_eusrstack+0x1fffd40b>
     f78:	fec70ce3          	beq	a4,a2,f70 <UART3_SendString+0xa>
C:\MRS_DATA\workspace\AT\obj/../StdPeriphDriver/CH59x_uart3.c:124
            R8_UART3_THR = *buf++;
     f7c:	0505                	addi	a0,a0,1
     f7e:	fff54603          	lbu	a2,-1(a0)
C:\MRS_DATA\workspace\AT\obj/../StdPeriphDriver/CH59x_uart3.c:125
            len--;
     f82:	15fd                	addi	a1,a1,-1
     f84:	05c2                	slli	a1,a1,0x10
C:\MRS_DATA\workspace\AT\obj/../StdPeriphDriver/CH59x_uart3.c:124
            R8_UART3_THR = *buf++;
     f86:	c0c68423          	sb	a2,-1016(a3) # 40003c08 <_eusrstack+0x1fffd408>
C:\MRS_DATA\workspace\AT\obj/../StdPeriphDriver/CH59x_uart3.c:125
            len--;
     f8a:	81c1                	srli	a1,a1,0x10
     f8c:	b7d5                	j	f70 <UART3_SendString+0xa>

00000f8e <UART3_RecvString>:
UART3_RecvString():
C:\MRS_DATA\workspace\AT\obj/../StdPeriphDriver/CH59x_uart3.c:143
 */
uint16_t UART3_RecvString(uint8_t *buf)
{
    uint16_t len = 0;

    while(R8_UART3_RFC)
     f8e:	4781                	li	a5,0
     f90:	400046b7          	lui	a3,0x40004
     f94:	c0a6c703          	lbu	a4,-1014(a3) # 40003c0a <_eusrstack+0x1fffd40a>
     f98:	01079613          	slli	a2,a5,0x10
     f9c:	8241                	srli	a2,a2,0x10
     f9e:	0ff77713          	andi	a4,a4,255
     fa2:	e319                	bnez	a4,fa8 <UART3_RecvString+0x1a>
C:\MRS_DATA\workspace\AT\obj/../StdPeriphDriver/CH59x_uart3.c:150
        *buf++ = R8_UART3_RBR;
        len++;
    }

    return (len);
}
     fa4:	8532                	mv	a0,a2
     fa6:	8082                	ret
C:\MRS_DATA\workspace\AT\obj/../StdPeriphDriver/CH59x_uart3.c:145
        *buf++ = R8_UART3_RBR;
     fa8:	c086c603          	lbu	a2,-1016(a3)
     fac:	00f50733          	add	a4,a0,a5
     fb0:	0785                	addi	a5,a5,1
     fb2:	00c70023          	sb	a2,0(a4)
C:\MRS_DATA\workspace\AT\obj/../StdPeriphDriver/CH59x_uart3.c:146
        len++;
     fb6:	bff9                	j	f94 <UART3_RecvString+0x6>

00000fb8 <memcpy>:
memcpy():
     fb8:	00a5c7b3          	xor	a5,a1,a0
     fbc:	8b8d                	andi	a5,a5,3
     fbe:	00c50733          	add	a4,a0,a2
     fc2:	e781                	bnez	a5,fca <memcpy+0x12>
     fc4:	478d                	li	a5,3
     fc6:	00c7ee63          	bltu	a5,a2,fe2 <memcpy+0x2a>
     fca:	87aa                	mv	a5,a0
     fcc:	0ae57063          	bgeu	a0,a4,106c <memcpy+0xb4>
     fd0:	0005c683          	lbu	a3,0(a1)
     fd4:	0785                	addi	a5,a5,1
     fd6:	0585                	addi	a1,a1,1
     fd8:	fed78fa3          	sb	a3,-1(a5)
     fdc:	fee7eae3          	bltu	a5,a4,fd0 <memcpy+0x18>
     fe0:	8082                	ret
     fe2:	00357693          	andi	a3,a0,3
     fe6:	87aa                	mv	a5,a0
     fe8:	ca91                	beqz	a3,ffc <memcpy+0x44>
     fea:	0005c683          	lbu	a3,0(a1)
     fee:	0785                	addi	a5,a5,1
     ff0:	0585                	addi	a1,a1,1
     ff2:	fed78fa3          	sb	a3,-1(a5)
     ff6:	0037f693          	andi	a3,a5,3
     ffa:	b7fd                	j	fe8 <memcpy+0x30>
     ffc:	ffc77693          	andi	a3,a4,-4
    1000:	fe068613          	addi	a2,a3,-32
    1004:	06c7f063          	bgeu	a5,a2,1064 <memcpy+0xac>
    1008:	0005a383          	lw	t2,0(a1)
    100c:	0045a283          	lw	t0,4(a1)
    1010:	0085af83          	lw	t6,8(a1)
    1014:	00c5af03          	lw	t5,12(a1)
    1018:	0105ae83          	lw	t4,16(a1)
    101c:	0145ae03          	lw	t3,20(a1)
    1020:	0185a303          	lw	t1,24(a1)
    1024:	01c5a883          	lw	a7,28(a1)
    1028:	02458593          	addi	a1,a1,36
    102c:	0077a023          	sw	t2,0(a5)
    1030:	ffc5a803          	lw	a6,-4(a1)
    1034:	0057a223          	sw	t0,4(a5)
    1038:	01f7a423          	sw	t6,8(a5)
    103c:	01e7a623          	sw	t5,12(a5)
    1040:	01d7a823          	sw	t4,16(a5)
    1044:	01c7aa23          	sw	t3,20(a5)
    1048:	0067ac23          	sw	t1,24(a5)
    104c:	0117ae23          	sw	a7,28(a5)
    1050:	02478793          	addi	a5,a5,36
    1054:	ff07ae23          	sw	a6,-4(a5)
    1058:	b775                	j	1004 <memcpy+0x4c>
    105a:	4190                	lw	a2,0(a1)
    105c:	0791                	addi	a5,a5,4
    105e:	0591                	addi	a1,a1,4
    1060:	fec7ae23          	sw	a2,-4(a5)
    1064:	fed7ebe3          	bltu	a5,a3,105a <memcpy+0xa2>
    1068:	f6e7e4e3          	bltu	a5,a4,fd0 <memcpy+0x18>
    106c:	8082                	ret

0000106e <strlen>:
strlen():
    106e:	87aa                	mv	a5,a0
    1070:	0785                	addi	a5,a5,1
    1072:	fff7c703          	lbu	a4,-1(a5)
    1076:	ff6d                	bnez	a4,1070 <strlen+0x2>
    1078:	40a78533          	sub	a0,a5,a0
    107c:	157d                	addi	a0,a0,-1
    107e:	8082                	ret
    1080:	5441                	li	s0,-16
    1082:	0050432b          	0x50432b
    1086:	0000                	unimp
    1088:	5441                	li	s0,-16
    108a:	4950432b          	0x4950432b
    108e:	3f4e                	fld	ft10,240(sp)
    1090:	0a0d                	addi	s4,s4,3
    1092:	0000                	unimp
    1094:	6e697063          	bgeu	s2,t1,1774 <_data_lma+0x630>
    1098:	0a0d6b6f          	jal	s6,d7138 <_data_lma+0xd5ff4>
    109c:	0000                	unimp
    109e:	0000                	unimp
    10a0:	5441                	li	s0,-16
    10a2:	5247432b          	0x5247432b
    10a6:	4745                	li	a4,17
    10a8:	000a0d3f 45524743 	0x45524743000a0d3f
    10b0:	0d6b6f47          	0xd6b6f47
    10b4:	000a                	c.slli	zero,0x2
    10b6:	0000                	unimp
    10b8:	5441                	li	s0,-16
    10ba:	4349512b          	0x4349512b
    10be:	3d504753          	0x3d504753
    10c2:	2c31                	jal	12de <_data_lma+0x19a>
    10c4:	3f31                	jal	fe0 <memcpy+0x28>
    10c6:	0a0d                	addi	s4,s4,3
    10c8:	0000                	unimp
    10ca:	0000                	unimp
    10cc:	50477363          	bgeu	a4,tp,15d2 <_data_lma+0x48e>
    10d0:	0a0d6b6f          	jal	s6,d7170 <_data_lma+0xd602c>
    10d4:	0000                	unimp
    10d6:	0000                	unimp
    10d8:	5441                	li	s0,-16
    10da:	4149512b          	0x4149512b
    10de:	313d5443          	fmadd.s	fs0,fs10,fs3,ft6,unknown
    10e2:	0a0d                	addi	s4,s4,3
    10e4:	0000                	unimp
    10e6:	0000                	unimp
    10e8:	4951                	li	s2,20
    10ea:	4341                	li	t1,16
    10ec:	6f54                	flw	fa3,28(a4)
    10ee:	000a0d6b          	0xa0d6b
    10f2:	0000                	unimp
    10f4:	6e65706f          	j	587da <_data_lma+0x57696>
    10f8:	0a0d6b6f          	jal	s6,d7198 <_data_lma+0xd6054>
    10fc:	0000                	unimp
    10fe:	0000                	unimp
    1100:	5441                	li	s0,-16
    1102:	4f49512b          	0x4f49512b
    1106:	4550                	lw	a2,12(a0)
    1108:	3d4e                	fld	fs10,240(sp)
    110a:	2c31                	jal	1326 <_data_lma+0x1e2>
    110c:	2c30                	fld	fa2,88(s0)
    110e:	5422                	lw	s0,40(sp)
    1110:	2c225043          	0x2c225043
    1114:	3122                	fld	ft2,40(sp)
    1116:	3231                	jal	a22 <memset+0x94>
    1118:	322e                	fld	ft4,232(sp)
    111a:	35322e37          	lui	t3,0x35322
    111e:	2e30                	fld	fa2,88(a2)
    1120:	3039                	jal	92e <handle_reset+0x52>
    1122:	2c22                	fld	fs8,8(sp)
    1124:	3136                	fld	ft2,360(sp)
    1126:	3331                	jal	e32 <UART1_ByteTrigCfg+0x8>
    1128:	2c35                	jal	1364 <_data_lma+0x220>
    112a:	2c30                	fld	fa2,88(s0)
    112c:	0d31                	addi	s10,s10,12
    112e:	000a                	c.slli	zero,0x2
    1130:	fbca                	fsw	fs2,244(sp)
    1132:	ffff                	0xffff
    1134:	fbf2                	fsw	ft8,244(sp)
    1136:	ffff                	0xffff
    1138:	fc1a                	fsw	ft6,56(sp)
    113a:	ffff                	0xffff
    113c:	fc32                	fsw	fa2,56(sp)
    113e:	ffff                	0xffff
    1140:	fc4c                	fsw	fa1,60(s0)
    1142:	ffff                	0xffff
