
queue1.elf:     file format elf32-littleriscv
queue1.elf
architecture: riscv:rv32, flags 0x00000112:
EXEC_P, HAS_SYMS, D_PAGED
start address 0x00000000

Program Header:
    LOAD off    0x00001000 vaddr 0x00000000 paddr 0x00000000 align 2**12
         filesz 0x00000004 memsz 0x00000004 flags r-x
    LOAD off    0x00002000 vaddr 0x20000000 paddr 0x00000004 align 2**12
         filesz 0x00000884 memsz 0x00000884 flags r-x
    LOAD off    0x00002888 vaddr 0x00000888 paddr 0x00000888 align 2**12
         filesz 0x00001558 memsz 0x00001558 flags r-x
    LOAD off    0x00004884 vaddr 0x20000884 paddr 0x00001de0 align 2**12
         filesz 0x0000006c memsz 0x000005b8 flags rw-

Sections:
Idx Name            Size      VMA       LMA       File off  Algn  Flags
  0 .init           00000004  00000000  00000000  00001000  2**1  CONTENTS, ALLOC, LOAD, READONLY, CODE
  1 .highcodelalign 00000000  00000004  00000004  000048f0  2**0  CONTENTS
  2 .highcode       00000884  20000000  00000004  00002000  2**1  CONTENTS, ALLOC, LOAD, READONLY, CODE
  3 .text           00001558  00000888  00000888  00002888  2**2  CONTENTS, ALLOC, LOAD, READONLY, CODE
  4 .fini           00000000  00001de0  00001de0  000048f0  2**0  CONTENTS, ALLOC, LOAD, CODE
  5 .dalign         00000000  20000884  20000884  000048f0  2**0  CONTENTS
  6 .dlalign        00000000  00001de0  00001de0  000048f0  2**0  CONTENTS
  7 .data           0000006c  20000884  00001de0  00004884  2**2  CONTENTS, ALLOC, LOAD, DATA
  8 .bss            0000054c  200008f0  00001e4c  000048f0  2**2  ALLOC
  9 .stack          00000000  20006800  20006800  000048f0  2**0  CONTENTS
 10 .debug_info     00005c8b  00000000  00000000  000048f0  2**0  CONTENTS, READONLY, DEBUGGING
 11 .debug_abbrev   00001060  00000000  00000000  0000a57b  2**0  CONTENTS, READONLY, DEBUGGING
 12 .debug_loc      00000ebb  00000000  00000000  0000b5db  2**0  CONTENTS, READONLY, DEBUGGING
 13 .debug_aranges  00000210  00000000  00000000  0000c498  2**3  CONTENTS, READONLY, DEBUGGING
 14 .debug_ranges   00000200  00000000  00000000  0000c6a8  2**3  CONTENTS, READONLY, DEBUGGING
 15 .debug_line     00003520  00000000  00000000  0000c8a8  2**0  CONTENTS, READONLY, DEBUGGING
 16 .debug_str      0000104c  00000000  00000000  0000fdc8  2**0  CONTENTS, READONLY, DEBUGGING
 17 .comment        00000033  00000000  00000000  00010e14  2**0  CONTENTS, READONLY
 18 .debug_frame    000009a8  00000000  00000000  00010e48  2**2  CONTENTS, READONLY, DEBUGGING
 19 .stabstr        00000117  00000000  00000000  000117f0  2**0  CONTENTS, READONLY, DEBUGGING
SYMBOL TABLE:
00000000 l    d  .init	00000000 .init
00000004 l    d  .highcodelalign	00000000 .highcodelalign
20000000 l    d  .highcode	00000000 .highcode
00000888 l    d  .text	00000000 .text
00001de0 l    d  .fini	00000000 .fini
20000884 l    d  .dalign	00000000 .dalign
00001de0 l    d  .dlalign	00000000 .dlalign
20000884 l    d  .data	00000000 .data
200008f0 l    d  .bss	00000000 .bss
20006800 l    d  .stack	00000000 .stack
00000000 l    d  .debug_info	00000000 .debug_info
00000000 l    d  .debug_abbrev	00000000 .debug_abbrev
00000000 l    d  .debug_loc	00000000 .debug_loc
00000000 l    d  .debug_aranges	00000000 .debug_aranges
00000000 l    d  .debug_ranges	00000000 .debug_ranges
00000000 l    d  .debug_line	00000000 .debug_line
00000000 l    d  .debug_str	00000000 .debug_str
00000000 l    d  .comment	00000000 .comment
00000000 l    d  .debug_frame	00000000 .debug_frame
00000000 l    d  .stabstr	00000000 .stabstr
00000000 l    df *ABS*	00000000 ./Startup/startup_CH592.o
20000000 l       .highcode	00000000 _vector_base
00000000 l    df *ABS*	00000000 CH59x_sys.c
00000000 l    df *ABS*	00000000 ISP583.c
20000470 l       .highcode	00000000 .loop18
2000047e l       .highcode	00000000 .loop29
2000048c l       .highcode	00000000 .loop40
20000718 l       .highcode	00000000 .loop402
00000000 l    df *ABS*	00000000 Main.c
00000000 l    df *ABS*	00000000 CH59x_gpio.c
00000000 l    df *ABS*	00000000 CH59x_uart1.c
00000000 l    df *ABS*	00000000 CH59x_uart3.c
00000000 l    df *ABS*	00000000 memcpy.c
00000000 l    df *ABS*	00000000 snprintf.c
00000000 l    df *ABS*	00000000 strlen.c
00000000 l    df *ABS*	00000000 nano-mallocr.c
00000000 l    df *ABS*	00000000 nano-mallocr.c
00000000 l    df *ABS*	00000000 nano-vfprintf.c
00000000 l    df *ABS*	00000000 nano-vfprintf_i.c
00000000 l    df *ABS*	00000000 sbrkr.c
00000000 l    df *ABS*	00000000 memchr.c
00000000 l    df *ABS*	00000000 memmove.c
00000000 l    df *ABS*	00000000 mlock.c
00000000 l    df *ABS*	00000000 nano-mallocr.c
00000000 l    df *ABS*	00000000 nano-mallocr.c
00000000 l    df *ABS*	00000000 sbrk.c
20000900 l     O .bss	00000004 heap_end.1518
00000000 l    df *ABS*	00000000 findfp.c
00000000 l    df *ABS*	00000000 impure.c
20000884 l     O .data	00000060 impure_data
00000000 l    df *ABS*	00000000 reent.c
00000000 l    df *ABS*	00000000 close.c
00001c44 g     F .text	00000014 _malloc_usable_size_r
0000104a g     F .text	00000028 UART1_SendString
0000109c g     F .text	00000030 UART3_BaudRateCfg
2000048c g     F .highcode	0000000e FLASH_ROM_OUT
000010cc g     F .text	00000032 UART3_DefInit
200010e8 g       .data	00000000 __global_pointer$
20000428 g     F .highcode	0000000e mDelayuS
2000036a  w    F .highcode	000000be HardFault_Handler
20000090  w      .highcode	00000000 GPIOB_IRQHandler
00001bea g     F .text	00000002 __malloc_unlock
20000090  w      .highcode	00000000 GPIOA_IRQHandler
20000090  w      .highcode	00000000 SysTick_Handler
00001072 g     F .text	0000002a UART1_RecvString
00001b9e g     F .text	0000004a memmove
0000124a g     F .text	00000072 snprintf
20000090  w      .highcode	00000000 NMI_Handler
00000dfe g     F .text	000000c0 UART1_IRQHandler
20000e38 g     O .bss	00000004 errno
200008f0 g       .bss	00000000 _sbss
2000047e g     F .highcode	0000000e FLASH_ROM_IN
20000090  w      .highcode	00000000 UART0_IRQHandler
00001194 g     F .text	000000b6 memcpy
00001532 g     F .text	00000276 _svfprintf_r
00000b0e g     F .text	00000022 get_AT_respone
00001020 g     F .text	0000002a UART1_INTCfg
00000004 g       .init	00000000 _einit
20000090  w      .highcode	00000000 BB_IRQHandler
2000051a g     F .highcode	0000036a FLASH_EEPROM_CMD
20000090  w      .highcode	00000000 Break_Point_Handler
0000116a g     F .text	0000002a UART3_RecvString
00001b5c g     F .text	00000028 _sbrk_r
00001006 g     F .text	0000001a UART1_ByteTrigCfg
00000d18 g     F .text	00000028 TMR0_IRQHandler
2000045e g     F .highcode	00000012 FLASH_ROM_BEG
20000436 g     F .highcode	00000028 mDelaymS
20000090  w      .highcode	00000000 Ecall_M_Mode_Handler
2000049a g     F .highcode	00000048 FLASH_ROM_ADDR
00001bec g     F .text	00000058 _realloc_r
00001c58 g     F .text	00000020 _sbrk
20000090  w      .highcode	00000000 RTC_IRQHandler
20000e3c g       .bss	00000000 _ebss
00001118 g     F .text	0000002a UART3_INTCfg
00000fd4 g     F .text	00000032 UART1_DefInit
200004e2 g     F .highcode	00000038 FLASH_ROM_WAIT
200008f0 g     O .bss	00000004 time_tick
20000904 g     O .bss	00000014 Rx
00001d44 g     O .text	00000020 __sf_fake_stderr
0000124a g     F .text	00000072 sniprintf
20000e3c g       .bss	00000000 end
200009e0 g     O .bss	000003f0 mainqueue
20000090  w      .highcode	00000000 UART2_IRQHandler
20000090  w      .highcode	00000000 PWMX_IRQHandler
0000144e g     F .text	000000e4 __ssputs_r
00000b30 g     F .text	00000034 is_645
00001b84 g     F .text	0000001a memchr
000012ce g     F .text	000000a8 _free_r
000010fe g     F .text	0000001a UART3_ByteTrigCfg
00000000 g       .init	00000000 _start
00000a40 g     F .text	0000005c queue_pop
20000090  w      .highcode	00000000 ADC_IRQHandler
20000000 g       .highcode	00000000 _highcode_vma_start
20000090  w      .highcode	00000000 TMR2_IRQHandler
200008f4 g     O .bss	00000004 IRQ_STA
20000884 g       .data	00000000 _data_vma
20000092 g     F .highcode	00000266 SetSysClock
20000090  w      .highcode	00000000 USB_IRQHandler
00001be8 g     F .text	00000002 __malloc_lock
00001142 g     F .text	00000028 UART3_SendString
00001d64 g     O .text	00000020 __sf_fake_stdin
20000090  w      .highcode	00000000 I2C_IRQHandler
00000932 g     F .text	000000a8 memset
00000b64 g     F .text	000001b4 main
000009ec g     F .text	00000054 queue_push
00001376 g     F .text	000000d8 _malloc_r
00000004 g       .highcodelalign	00000000 _highcode_lma
20000090  w      .highcode	00000000 LLE_IRQHandler
00000000 g       .init	00000000 _sinit
000017a8 g     F .text	0000010c _printf_common
200008e8 g     O .data	00000004 _impure_ptr
00001532 g     F .text	00000276 _svfiprintf_r
20000090  w      .highcode	00000000 WDOG_BAT_IRQHandler
20000090  w      .highcode	00000000 Ecall_U_Mode_Handler
20000918 g     O .bss	000000c8 RxBuff
20000090  w      .highcode	00000000 TMR3_IRQHandler
20006800 g       .stack	00000000 _eusrstack
20000090  w      .highcode	00000000 SW_Handler
00000ebe g     F .text	000000a6 GPIOA_ModeCfg
00000f64 g     F .text	00000040 GetSysClock
200008f0 g       .data	00000000 _edata
20000090  w      .highcode	00000000 SPI0_IRQHandler
20000884 g       .highcode	00000000 _highcode_vma_end
00001de0 g       .dlalign	00000000 _data_lma
00000a9c g     F .text	00000072 UART_init
00001d84 g     O .text	00000020 __sf_fake_stdout
00000888  w      .text	00000000 handle_reset
000012bc g     F .text	00000012 strlen
000018b4 g     F .text	000002a8 _printf_i
00000d40 g     F .text	000000be UART3_IRQHandler
200008fc g     O .bss	00000004 __malloc_sbrk_start
20000470 g     F .highcode	0000000e FLASH_ROM_END
200008f8 g     O .bss	00000004 __malloc_free_list
20000dd0 g     O .bss	00000034 recvmsg
20000090  w      .highcode	00000000 TMR1_IRQHandler
20000e04 g     O .bss	00000034 uartmsg
000009da g     F .text	00000012 queue_init
200002f8 g     F .highcode	00000072 SYS_ResetExecute
00000fa4 g     F .text	00000030 UART1_BaudRateCfg



Disassembly of section .init:

00000000 <_sinit>:
_start():
C:\MRS_DATA\workspace\queue1\obj/../Startup/startup_CH592.S:17

	.section	.init,"ax",@progbits
	.global	_start
	.align	1
_start:
	j	handle_reset
   0:	0890006f          	j	888 <handle_reset>

Disassembly of section .highcode:

20000000 <_highcode_vma_start>:
	...
_vector_base():
20000008:	0090                	addi	a2,sp,64
2000000a:	2000                	fld	fs0,0(s0)
2000000c:	036a                	slli	t1,t1,0x1a
2000000e:	2000                	fld	fs0,0(s0)
20000010:	bda9                	j	1ffffe6a <_data_lma+0x1fffe08a>
20000012:	f5f9                	bnez	a1,1fffffe0 <_data_lma+0x1fffe200>
20000014:	0090                	addi	a2,sp,64
20000016:	2000                	fld	fs0,0(s0)
	...
20000020:	0090                	addi	a2,sp,64
20000022:	2000                	fld	fs0,0(s0)
20000024:	0090                	addi	a2,sp,64
20000026:	2000                	fld	fs0,0(s0)
	...
20000030:	0090                	addi	a2,sp,64
20000032:	2000                	fld	fs0,0(s0)
20000034:	0000                	unimp
20000036:	0000                	unimp
20000038:	0090                	addi	a2,sp,64
2000003a:	2000                	fld	fs0,0(s0)
2000003c:	0000                	unimp
2000003e:	0000                	unimp
20000040:	0d18                	addi	a4,sp,656
20000042:	0000                	unimp
20000044:	0090                	addi	a2,sp,64
20000046:	2000                	fld	fs0,0(s0)
20000048:	0090                	addi	a2,sp,64
2000004a:	2000                	fld	fs0,0(s0)
2000004c:	0090                	addi	a2,sp,64
2000004e:	2000                	fld	fs0,0(s0)
20000050:	0090                	addi	a2,sp,64
20000052:	2000                	fld	fs0,0(s0)
20000054:	0090                	addi	a2,sp,64
20000056:	2000                	fld	fs0,0(s0)
20000058:	0090                	addi	a2,sp,64
2000005a:	2000                	fld	fs0,0(s0)
2000005c:	0000                	unimp
2000005e:	0000                	unimp
20000060:	0090                	addi	a2,sp,64
20000062:	2000                	fld	fs0,0(s0)
20000064:	0090                	addi	a2,sp,64
20000066:	2000                	fld	fs0,0(s0)
20000068:	0090                	addi	a2,sp,64
2000006a:	2000                	fld	fs0,0(s0)
2000006c:	0dfe                	slli	s11,s11,0x1f
2000006e:	0000                	unimp
20000070:	0090                	addi	a2,sp,64
20000072:	2000                	fld	fs0,0(s0)
20000074:	0090                	addi	a2,sp,64
20000076:	2000                	fld	fs0,0(s0)
20000078:	0090                	addi	a2,sp,64
2000007a:	2000                	fld	fs0,0(s0)
2000007c:	0090                	addi	a2,sp,64
2000007e:	2000                	fld	fs0,0(s0)
20000080:	0090                	addi	a2,sp,64
20000082:	2000                	fld	fs0,0(s0)
20000084:	0090                	addi	a2,sp,64
20000086:	2000                	fld	fs0,0(s0)
20000088:	0d40                	addi	s0,sp,660
2000008a:	0000                	unimp
2000008c:	0090                	addi	a2,sp,64
2000008e:	2000                	fld	fs0,0(s0)

20000090 <ADC_IRQHandler>:
GPIOB_IRQHandler():
C:\MRS_DATA\workspace\queue1\obj/../Startup/startup_CH592.S:119
TMR3_IRQHandler:
UART2_IRQHandler:
UART3_IRQHandler:
WDOG_BAT_IRQHandler: 
1:  
	j 1b
20000090:	a001                	j	20000090 <ADC_IRQHandler>

20000092 <SetSysClock>:
sys_safe_access_enable():
C:\MRS_DATA\workspace\queue1\StdPeriphDriver\inc/CH59x_sys.h:182
 * within the valid period. The safe mode will be automatically 
 * terminated after the above validity period is exceeded.
 */
 __attribute__((always_inline)) static inline void sys_safe_access_enable(void)
{
    if(read_csr(0x800)&0x08)
20000092:	80002773          	csrr	a4,0x800
20000096:	8b21                	andi	a4,a4,8
20000098:	80c18793          	addi	a5,gp,-2036 # 200008f4 <IRQ_STA>
2000009c:	cb09                	beqz	a4,200000ae <SetSysClock+0x1c>
C:\MRS_DATA\workspace\queue1\StdPeriphDriver\inc/CH59x_sys.h:184
    {
        IRQ_STA = read_csr(0x800);
2000009e:	80002773          	csrr	a4,0x800
200000a2:	80e1a623          	sw	a4,-2036(gp) # 200008f4 <IRQ_STA>
C:\MRS_DATA\workspace\queue1\StdPeriphDriver\inc/CH59x_sys.h:185
        write_csr(0x800, (IRQ_STA&(~0x08)));
200000a6:	4398                	lw	a4,0(a5)
200000a8:	9b5d                	andi	a4,a4,-9
200000aa:	80071073          	csrw	0x800,a4
C:\MRS_DATA\workspace\queue1\StdPeriphDriver\inc/CH59x_sys.h:187
    }
    SAFEOPERATE;
200000ae:	0001                	nop
200000b0:	0001                	nop
C:\MRS_DATA\workspace\queue1\StdPeriphDriver\inc/CH59x_sys.h:188
    R8_SAFE_ACCESS_SIG = SAFE_ACCESS_SIG1;
200000b2:	40001737          	lui	a4,0x40001
200000b6:	05700693          	li	a3,87
200000ba:	04d70023          	sb	a3,64(a4) # 40001040 <_eusrstack+0x1fffa840>
C:\MRS_DATA\workspace\queue1\StdPeriphDriver\inc/CH59x_sys.h:189
    R8_SAFE_ACCESS_SIG = SAFE_ACCESS_SIG2;
200000be:	fa800693          	li	a3,-88
200000c2:	04d70023          	sb	a3,64(a4)
C:\MRS_DATA\workspace\queue1\StdPeriphDriver\inc/CH59x_sys.h:190
    SAFEOPERATE;
200000c6:	0001                	nop
200000c8:	0001                	nop
SetSysClock():
C:\MRS_DATA\workspace\queue1\obj/../StdPeriphDriver/CH59x_sys.c:29
 */
__HIGH_CODE
void SetSysClock(SYS_CLKTypeDef sc)
{
    sys_safe_access_enable();
    R8_PLL_CONFIG &= ~(1 << 5); //
200000ca:	04b74683          	lbu	a3,75(a4)
200000ce:	0df6f693          	andi	a3,a3,223
200000d2:	04d705a3          	sb	a3,75(a4)
sys_safe_access_disable():
C:\MRS_DATA\workspace\queue1\StdPeriphDriver\inc/CH59x_sys.h:195
}

__attribute__((always_inline)) static inline void sys_safe_access_disable(void)
{
    R8_SAFE_ACCESS_SIG = 0;
200000d6:	04070023          	sb	zero,64(a4)
C:\MRS_DATA\workspace\queue1\StdPeriphDriver\inc/CH59x_sys.h:196
    write_csr(0x800, read_csr(0x800)|(IRQ_STA&0x08));
200000da:	800026f3          	csrr	a3,0x800
200000de:	4398                	lw	a4,0(a5)
200000e0:	8b21                	andi	a4,a4,8
200000e2:	8f55                	or	a4,a4,a3
200000e4:	80071073          	csrw	0x800,a4
C:\MRS_DATA\workspace\queue1\StdPeriphDriver\inc/CH59x_sys.h:197
    IRQ_STA = 0;
200000e8:	8001a623          	sw	zero,-2036(gp) # 200008f4 <IRQ_STA>
C:\MRS_DATA\workspace\queue1\StdPeriphDriver\inc/CH59x_sys.h:198
    SAFEOPERATE;
200000ec:	0001                	nop
200000ee:	0001                	nop
SetSysClock():
C:\MRS_DATA\workspace\queue1\obj/../StdPeriphDriver/CH59x_sys.c:31
    sys_safe_access_disable();
    if(sc & 0x20)  // HSE div
200000f0:	02057713          	andi	a4,a0,32
200000f4:	10070f63          	beqz	a4,20000212 <SetSysClock+0x180>
sys_safe_access_enable():
C:\MRS_DATA\workspace\queue1\StdPeriphDriver\inc/CH59x_sys.h:182
    if(read_csr(0x800)&0x08)
200000f8:	80002773          	csrr	a4,0x800
200000fc:	8b21                	andi	a4,a4,8
200000fe:	cb09                	beqz	a4,20000110 <SetSysClock+0x7e>
C:\MRS_DATA\workspace\queue1\StdPeriphDriver\inc/CH59x_sys.h:184
        IRQ_STA = read_csr(0x800);
20000100:	80002773          	csrr	a4,0x800
20000104:	80e1a623          	sw	a4,-2036(gp) # 200008f4 <IRQ_STA>
C:\MRS_DATA\workspace\queue1\StdPeriphDriver\inc/CH59x_sys.h:185
        write_csr(0x800, (IRQ_STA&(~0x08)));
20000108:	4398                	lw	a4,0(a5)
2000010a:	9b5d                	andi	a4,a4,-9
2000010c:	80071073          	csrw	0x800,a4
C:\MRS_DATA\workspace\queue1\StdPeriphDriver\inc/CH59x_sys.h:187
    SAFEOPERATE;
20000110:	0001                	nop
20000112:	0001                	nop
C:\MRS_DATA\workspace\queue1\StdPeriphDriver\inc/CH59x_sys.h:188
    R8_SAFE_ACCESS_SIG = SAFE_ACCESS_SIG1;
20000114:	40001737          	lui	a4,0x40001
20000118:	05700693          	li	a3,87
2000011c:	04d70023          	sb	a3,64(a4) # 40001040 <_eusrstack+0x1fffa840>
C:\MRS_DATA\workspace\queue1\StdPeriphDriver\inc/CH59x_sys.h:189
    R8_SAFE_ACCESS_SIG = SAFE_ACCESS_SIG2;
20000120:	fa800693          	li	a3,-88
20000124:	04d70023          	sb	a3,64(a4)
C:\MRS_DATA\workspace\queue1\StdPeriphDriver\inc/CH59x_sys.h:190
    SAFEOPERATE;
20000128:	0001                	nop
2000012a:	0001                	nop
SetSysClock():
C:\MRS_DATA\workspace\queue1\obj/../StdPeriphDriver/CH59x_sys.c:34
    {
        sys_safe_access_enable();
        R32_CLK_SYS_CFG = (0 << 6) | (sc & 0x1f) | RB_TX_32M_PWR_EN | RB_PLL_PWR_EN;
2000012c:	001406b7          	lui	a3,0x140
20000130:	897d                	andi	a0,a0,31
20000132:	8d55                	or	a0,a0,a3
20000134:	c708                	sw	a0,8(a4)
C:\MRS_DATA\workspace\queue1\obj/../StdPeriphDriver/CH59x_sys.c:35
        __nop();
20000136:	0001                	nop
C:\MRS_DATA\workspace\queue1\obj/../StdPeriphDriver/CH59x_sys.c:36
        __nop();
20000138:	0001                	nop
C:\MRS_DATA\workspace\queue1\obj/../StdPeriphDriver/CH59x_sys.c:37
        __nop();
2000013a:	0001                	nop
C:\MRS_DATA\workspace\queue1\obj/../StdPeriphDriver/CH59x_sys.c:38
        __nop();
2000013c:	0001                	nop
sys_safe_access_disable():
C:\MRS_DATA\workspace\queue1\StdPeriphDriver\inc/CH59x_sys.h:195
    R8_SAFE_ACCESS_SIG = 0;
2000013e:	04070023          	sb	zero,64(a4)
C:\MRS_DATA\workspace\queue1\StdPeriphDriver\inc/CH59x_sys.h:196
    write_csr(0x800, read_csr(0x800)|(IRQ_STA&0x08));
20000142:	800026f3          	csrr	a3,0x800
20000146:	4398                	lw	a4,0(a5)
20000148:	8b21                	andi	a4,a4,8
2000014a:	8f55                	or	a4,a4,a3
2000014c:	80071073          	csrw	0x800,a4
C:\MRS_DATA\workspace\queue1\StdPeriphDriver\inc/CH59x_sys.h:197
    IRQ_STA = 0;
20000150:	8001a623          	sw	zero,-2036(gp) # 200008f4 <IRQ_STA>
C:\MRS_DATA\workspace\queue1\StdPeriphDriver\inc/CH59x_sys.h:198
    SAFEOPERATE;
20000154:	0001                	nop
20000156:	0001                	nop
sys_safe_access_enable():
C:\MRS_DATA\workspace\queue1\StdPeriphDriver\inc/CH59x_sys.h:182
    if(read_csr(0x800)&0x08)
20000158:	80002773          	csrr	a4,0x800
2000015c:	8b21                	andi	a4,a4,8
2000015e:	cb09                	beqz	a4,20000170 <SetSysClock+0xde>
C:\MRS_DATA\workspace\queue1\StdPeriphDriver\inc/CH59x_sys.h:184
        IRQ_STA = read_csr(0x800);
20000160:	80002773          	csrr	a4,0x800
20000164:	80e1a623          	sw	a4,-2036(gp) # 200008f4 <IRQ_STA>
C:\MRS_DATA\workspace\queue1\StdPeriphDriver\inc/CH59x_sys.h:185
        write_csr(0x800, (IRQ_STA&(~0x08)));
20000168:	4398                	lw	a4,0(a5)
2000016a:	9b5d                	andi	a4,a4,-9
2000016c:	80071073          	csrw	0x800,a4
C:\MRS_DATA\workspace\queue1\StdPeriphDriver\inc/CH59x_sys.h:187
    SAFEOPERATE;
20000170:	0001                	nop
20000172:	0001                	nop
C:\MRS_DATA\workspace\queue1\StdPeriphDriver\inc/CH59x_sys.h:188
    R8_SAFE_ACCESS_SIG = SAFE_ACCESS_SIG1;
20000174:	40001737          	lui	a4,0x40001
20000178:	05700693          	li	a3,87
2000017c:	04d70023          	sb	a3,64(a4) # 40001040 <_eusrstack+0x1fffa840>
C:\MRS_DATA\workspace\queue1\StdPeriphDriver\inc/CH59x_sys.h:189
    R8_SAFE_ACCESS_SIG = SAFE_ACCESS_SIG2;
20000180:	fa800693          	li	a3,-88
20000184:	04d70023          	sb	a3,64(a4)
C:\MRS_DATA\workspace\queue1\StdPeriphDriver\inc/CH59x_sys.h:190
    SAFEOPERATE;
20000188:	0001                	nop
2000018a:	0001                	nop
SetSysClock():
C:\MRS_DATA\workspace\queue1\obj/../StdPeriphDriver/CH59x_sys.c:41
        sys_safe_access_disable();
        sys_safe_access_enable();
        SAFEOPERATE;
2000018c:	0001                	nop
2000018e:	0001                	nop
C:\MRS_DATA\workspace\queue1\obj/../StdPeriphDriver/CH59x_sys.c:42
        R8_FLASH_CFG = 0X51;
20000190:	400026b7          	lui	a3,0x40002
20000194:	05100613          	li	a2,81
C:\MRS_DATA\workspace\queue1\obj/../StdPeriphDriver/CH59x_sys.c:56
        __nop();
        __nop();
        __nop();
        sys_safe_access_disable();
        sys_safe_access_enable();
        R8_FLASH_CFG = 0X52;
20000198:	80c683a3          	sb	a2,-2041(a3) # 40001807 <_eusrstack+0x1fffb007>
sys_safe_access_disable():
C:\MRS_DATA\workspace\queue1\StdPeriphDriver\inc/CH59x_sys.h:195
    R8_SAFE_ACCESS_SIG = 0;
2000019c:	04070023          	sb	zero,64(a4)
C:\MRS_DATA\workspace\queue1\StdPeriphDriver\inc/CH59x_sys.h:196
    write_csr(0x800, read_csr(0x800)|(IRQ_STA&0x08));
200001a0:	800026f3          	csrr	a3,0x800
200001a4:	4398                	lw	a4,0(a5)
200001a6:	8b21                	andi	a4,a4,8
200001a8:	8f55                	or	a4,a4,a3
200001aa:	80071073          	csrw	0x800,a4
C:\MRS_DATA\workspace\queue1\StdPeriphDriver\inc/CH59x_sys.h:197
    IRQ_STA = 0;
200001ae:	8001a623          	sw	zero,-2036(gp) # 200008f4 <IRQ_STA>
C:\MRS_DATA\workspace\queue1\StdPeriphDriver\inc/CH59x_sys.h:198
    SAFEOPERATE;
200001b2:	0001                	nop
200001b4:	0001                	nop
sys_safe_access_enable():
C:\MRS_DATA\workspace\queue1\StdPeriphDriver\inc/CH59x_sys.h:182
    if(read_csr(0x800)&0x08)
200001b6:	80002773          	csrr	a4,0x800
200001ba:	8b21                	andi	a4,a4,8
200001bc:	cb09                	beqz	a4,200001ce <SetSysClock+0x13c>
C:\MRS_DATA\workspace\queue1\StdPeriphDriver\inc/CH59x_sys.h:184
        IRQ_STA = read_csr(0x800);
200001be:	80002773          	csrr	a4,0x800
200001c2:	80e1a623          	sw	a4,-2036(gp) # 200008f4 <IRQ_STA>
C:\MRS_DATA\workspace\queue1\StdPeriphDriver\inc/CH59x_sys.h:185
        write_csr(0x800, (IRQ_STA&(~0x08)));
200001c6:	4398                	lw	a4,0(a5)
200001c8:	9b5d                	andi	a4,a4,-9
200001ca:	80071073          	csrw	0x800,a4
C:\MRS_DATA\workspace\queue1\StdPeriphDriver\inc/CH59x_sys.h:187
    SAFEOPERATE;
200001ce:	0001                	nop
200001d0:	0001                	nop
C:\MRS_DATA\workspace\queue1\StdPeriphDriver\inc/CH59x_sys.h:188
    R8_SAFE_ACCESS_SIG = SAFE_ACCESS_SIG1;
200001d2:	40001737          	lui	a4,0x40001
200001d6:	05700693          	li	a3,87
200001da:	04d70023          	sb	a3,64(a4) # 40001040 <_eusrstack+0x1fffa840>
C:\MRS_DATA\workspace\queue1\StdPeriphDriver\inc/CH59x_sys.h:189
    R8_SAFE_ACCESS_SIG = SAFE_ACCESS_SIG2;
200001de:	fa800693          	li	a3,-88
200001e2:	04d70023          	sb	a3,64(a4)
C:\MRS_DATA\workspace\queue1\StdPeriphDriver\inc/CH59x_sys.h:190
    SAFEOPERATE;
200001e6:	0001                	nop
200001e8:	0001                	nop
SetSysClock():
C:\MRS_DATA\workspace\queue1\obj/../StdPeriphDriver/CH59x_sys.c:67
        R32_CLK_SYS_CFG |= RB_CLK_SYS_MOD;
        sys_safe_access_disable();
    }
    //更改FLASH clk的驱动能力
    sys_safe_access_enable();
    R8_PLL_CONFIG |= 1 << 7;
200001ea:	04b74683          	lbu	a3,75(a4)
200001ee:	0806e693          	ori	a3,a3,128
200001f2:	04d705a3          	sb	a3,75(a4)
sys_safe_access_disable():
C:\MRS_DATA\workspace\queue1\StdPeriphDriver\inc/CH59x_sys.h:195
    R8_SAFE_ACCESS_SIG = 0;
200001f6:	04070023          	sb	zero,64(a4)
C:\MRS_DATA\workspace\queue1\StdPeriphDriver\inc/CH59x_sys.h:196
    write_csr(0x800, read_csr(0x800)|(IRQ_STA&0x08));
200001fa:	80002773          	csrr	a4,0x800
200001fe:	439c                	lw	a5,0(a5)
20000200:	8ba1                	andi	a5,a5,8
20000202:	8fd9                	or	a5,a5,a4
20000204:	80079073          	csrw	0x800,a5
C:\MRS_DATA\workspace\queue1\StdPeriphDriver\inc/CH59x_sys.h:197
    IRQ_STA = 0;
20000208:	8001a623          	sw	zero,-2036(gp) # 200008f4 <IRQ_STA>
C:\MRS_DATA\workspace\queue1\StdPeriphDriver\inc/CH59x_sys.h:198
    SAFEOPERATE;
2000020c:	0001                	nop
2000020e:	0001                	nop
SetSysClock():
C:\MRS_DATA\workspace\queue1\obj/../StdPeriphDriver/CH59x_sys.c:69
    sys_safe_access_disable();
}
20000210:	8082                	ret
C:\MRS_DATA\workspace\queue1\obj/../StdPeriphDriver/CH59x_sys.c:46
    else if(sc & 0x40) // PLL div
20000212:	04057713          	andi	a4,a0,64
20000216:	c355                	beqz	a4,200002ba <SetSysClock+0x228>
sys_safe_access_enable():
C:\MRS_DATA\workspace\queue1\StdPeriphDriver\inc/CH59x_sys.h:182
    if(read_csr(0x800)&0x08)
20000218:	80002773          	csrr	a4,0x800
2000021c:	8b21                	andi	a4,a4,8
2000021e:	cb09                	beqz	a4,20000230 <SetSysClock+0x19e>
C:\MRS_DATA\workspace\queue1\StdPeriphDriver\inc/CH59x_sys.h:184
        IRQ_STA = read_csr(0x800);
20000220:	80002773          	csrr	a4,0x800
20000224:	80e1a623          	sw	a4,-2036(gp) # 200008f4 <IRQ_STA>
C:\MRS_DATA\workspace\queue1\StdPeriphDriver\inc/CH59x_sys.h:185
        write_csr(0x800, (IRQ_STA&(~0x08)));
20000228:	4398                	lw	a4,0(a5)
2000022a:	9b5d                	andi	a4,a4,-9
2000022c:	80071073          	csrw	0x800,a4
C:\MRS_DATA\workspace\queue1\StdPeriphDriver\inc/CH59x_sys.h:187
    SAFEOPERATE;
20000230:	0001                	nop
20000232:	0001                	nop
C:\MRS_DATA\workspace\queue1\StdPeriphDriver\inc/CH59x_sys.h:188
    R8_SAFE_ACCESS_SIG = SAFE_ACCESS_SIG1;
20000234:	40001737          	lui	a4,0x40001
20000238:	05700693          	li	a3,87
2000023c:	04d70023          	sb	a3,64(a4) # 40001040 <_eusrstack+0x1fffa840>
C:\MRS_DATA\workspace\queue1\StdPeriphDriver\inc/CH59x_sys.h:189
    R8_SAFE_ACCESS_SIG = SAFE_ACCESS_SIG2;
20000240:	fa800693          	li	a3,-88
20000244:	04d70023          	sb	a3,64(a4)
C:\MRS_DATA\workspace\queue1\StdPeriphDriver\inc/CH59x_sys.h:190
    SAFEOPERATE;
20000248:	0001                	nop
2000024a:	0001                	nop
SetSysClock():
C:\MRS_DATA\workspace\queue1\obj/../StdPeriphDriver/CH59x_sys.c:49
        R32_CLK_SYS_CFG = (1 << 6) | (sc & 0x1f) | RB_TX_32M_PWR_EN | RB_PLL_PWR_EN;
2000024c:	001406b7          	lui	a3,0x140
20000250:	04068693          	addi	a3,a3,64 # 140040 <_data_lma+0x13e260>
20000254:	897d                	andi	a0,a0,31
20000256:	8d55                	or	a0,a0,a3
20000258:	c708                	sw	a0,8(a4)
C:\MRS_DATA\workspace\queue1\obj/../StdPeriphDriver/CH59x_sys.c:50
        __nop();
2000025a:	0001                	nop
C:\MRS_DATA\workspace\queue1\obj/../StdPeriphDriver/CH59x_sys.c:51
        __nop();
2000025c:	0001                	nop
C:\MRS_DATA\workspace\queue1\obj/../StdPeriphDriver/CH59x_sys.c:52
        __nop();
2000025e:	0001                	nop
C:\MRS_DATA\workspace\queue1\obj/../StdPeriphDriver/CH59x_sys.c:53
        __nop();
20000260:	0001                	nop
sys_safe_access_disable():
C:\MRS_DATA\workspace\queue1\StdPeriphDriver\inc/CH59x_sys.h:195
    R8_SAFE_ACCESS_SIG = 0;
20000262:	04070023          	sb	zero,64(a4)
C:\MRS_DATA\workspace\queue1\StdPeriphDriver\inc/CH59x_sys.h:196
    write_csr(0x800, read_csr(0x800)|(IRQ_STA&0x08));
20000266:	800026f3          	csrr	a3,0x800
2000026a:	4398                	lw	a4,0(a5)
2000026c:	8b21                	andi	a4,a4,8
2000026e:	8f55                	or	a4,a4,a3
20000270:	80071073          	csrw	0x800,a4
C:\MRS_DATA\workspace\queue1\StdPeriphDriver\inc/CH59x_sys.h:197
    IRQ_STA = 0;
20000274:	8001a623          	sw	zero,-2036(gp) # 200008f4 <IRQ_STA>
C:\MRS_DATA\workspace\queue1\StdPeriphDriver\inc/CH59x_sys.h:198
    SAFEOPERATE;
20000278:	0001                	nop
2000027a:	0001                	nop
sys_safe_access_enable():
C:\MRS_DATA\workspace\queue1\StdPeriphDriver\inc/CH59x_sys.h:182
    if(read_csr(0x800)&0x08)
2000027c:	80002773          	csrr	a4,0x800
20000280:	8b21                	andi	a4,a4,8
20000282:	cb09                	beqz	a4,20000294 <SetSysClock+0x202>
C:\MRS_DATA\workspace\queue1\StdPeriphDriver\inc/CH59x_sys.h:184
        IRQ_STA = read_csr(0x800);
20000284:	80002773          	csrr	a4,0x800
20000288:	80e1a623          	sw	a4,-2036(gp) # 200008f4 <IRQ_STA>
C:\MRS_DATA\workspace\queue1\StdPeriphDriver\inc/CH59x_sys.h:185
        write_csr(0x800, (IRQ_STA&(~0x08)));
2000028c:	4398                	lw	a4,0(a5)
2000028e:	9b5d                	andi	a4,a4,-9
20000290:	80071073          	csrw	0x800,a4
C:\MRS_DATA\workspace\queue1\StdPeriphDriver\inc/CH59x_sys.h:187
    SAFEOPERATE;
20000294:	0001                	nop
20000296:	0001                	nop
C:\MRS_DATA\workspace\queue1\StdPeriphDriver\inc/CH59x_sys.h:188
    R8_SAFE_ACCESS_SIG = SAFE_ACCESS_SIG1;
20000298:	40001737          	lui	a4,0x40001
2000029c:	05700693          	li	a3,87
200002a0:	04d70023          	sb	a3,64(a4) # 40001040 <_eusrstack+0x1fffa840>
C:\MRS_DATA\workspace\queue1\StdPeriphDriver\inc/CH59x_sys.h:189
    R8_SAFE_ACCESS_SIG = SAFE_ACCESS_SIG2;
200002a4:	fa800693          	li	a3,-88
200002a8:	04d70023          	sb	a3,64(a4)
C:\MRS_DATA\workspace\queue1\StdPeriphDriver\inc/CH59x_sys.h:190
    SAFEOPERATE;
200002ac:	0001                	nop
200002ae:	0001                	nop
SetSysClock():
C:\MRS_DATA\workspace\queue1\obj/../StdPeriphDriver/CH59x_sys.c:56
        R8_FLASH_CFG = 0X52;
200002b0:	400026b7          	lui	a3,0x40002
200002b4:	05200613          	li	a2,82
200002b8:	b5c5                	j	20000198 <SetSysClock+0x106>
sys_safe_access_enable():
C:\MRS_DATA\workspace\queue1\StdPeriphDriver\inc/CH59x_sys.h:182
    if(read_csr(0x800)&0x08)
200002ba:	80002773          	csrr	a4,0x800
200002be:	8b21                	andi	a4,a4,8
200002c0:	cb09                	beqz	a4,200002d2 <SetSysClock+0x240>
C:\MRS_DATA\workspace\queue1\StdPeriphDriver\inc/CH59x_sys.h:184
        IRQ_STA = read_csr(0x800);
200002c2:	80002773          	csrr	a4,0x800
200002c6:	80e1a623          	sw	a4,-2036(gp) # 200008f4 <IRQ_STA>
C:\MRS_DATA\workspace\queue1\StdPeriphDriver\inc/CH59x_sys.h:185
        write_csr(0x800, (IRQ_STA&(~0x08)));
200002ca:	4398                	lw	a4,0(a5)
200002cc:	9b5d                	andi	a4,a4,-9
200002ce:	80071073          	csrw	0x800,a4
C:\MRS_DATA\workspace\queue1\StdPeriphDriver\inc/CH59x_sys.h:187
    SAFEOPERATE;
200002d2:	0001                	nop
200002d4:	0001                	nop
C:\MRS_DATA\workspace\queue1\StdPeriphDriver\inc/CH59x_sys.h:188
    R8_SAFE_ACCESS_SIG = SAFE_ACCESS_SIG1;
200002d6:	40001737          	lui	a4,0x40001
200002da:	05700693          	li	a3,87
200002de:	04d70023          	sb	a3,64(a4) # 40001040 <_eusrstack+0x1fffa840>
C:\MRS_DATA\workspace\queue1\StdPeriphDriver\inc/CH59x_sys.h:189
    R8_SAFE_ACCESS_SIG = SAFE_ACCESS_SIG2;
200002e2:	fa800693          	li	a3,-88
200002e6:	04d70023          	sb	a3,64(a4)
C:\MRS_DATA\workspace\queue1\StdPeriphDriver\inc/CH59x_sys.h:190
    SAFEOPERATE;
200002ea:	0001                	nop
200002ec:	0001                	nop
SetSysClock():
C:\MRS_DATA\workspace\queue1\obj/../StdPeriphDriver/CH59x_sys.c:62
        R32_CLK_SYS_CFG |= RB_CLK_SYS_MOD;
200002ee:	4714                	lw	a3,8(a4)
200002f0:	0c06e693          	ori	a3,a3,192
200002f4:	c714                	sw	a3,8(a4)
200002f6:	b55d                	j	2000019c <SetSysClock+0x10a>

200002f8 <SYS_ResetExecute>:
SYS_ResetExecute():
C:\MRS_DATA\workspace\queue1\obj/../StdPeriphDriver/CH59x_sys.c:131
 *
 * @return  none
 */
__HIGH_CODE
void SYS_ResetExecute(void)
{
200002f8:	1141                	addi	sp,sp,-16
C:\MRS_DATA\workspace\queue1\obj/../StdPeriphDriver/CH59x_sys.c:132
    FLASH_ROM_SW_RESET();
200002fa:	4681                	li	a3,0
200002fc:	4601                	li	a2,0
200002fe:	4581                	li	a1,0
20000300:	4511                	li	a0,4
C:\MRS_DATA\workspace\queue1\obj/../StdPeriphDriver/CH59x_sys.c:131
{
20000302:	c606                	sw	ra,12(sp)
C:\MRS_DATA\workspace\queue1\obj/../StdPeriphDriver/CH59x_sys.c:132
    FLASH_ROM_SW_RESET();
20000304:	2c19                	jal	2000051a <FLASH_EEPROM_CMD>
sys_safe_access_enable():
C:\MRS_DATA\workspace\queue1\StdPeriphDriver\inc/CH59x_sys.h:182
    if(read_csr(0x800)&0x08)
20000306:	800027f3          	csrr	a5,0x800
2000030a:	8ba1                	andi	a5,a5,8
2000030c:	80c18693          	addi	a3,gp,-2036 # 200008f4 <IRQ_STA>
20000310:	cb89                	beqz	a5,20000322 <SYS_ResetExecute+0x2a>
C:\MRS_DATA\workspace\queue1\StdPeriphDriver\inc/CH59x_sys.h:184
        IRQ_STA = read_csr(0x800);
20000312:	800027f3          	csrr	a5,0x800
20000316:	80f1a623          	sw	a5,-2036(gp) # 200008f4 <IRQ_STA>
C:\MRS_DATA\workspace\queue1\StdPeriphDriver\inc/CH59x_sys.h:185
        write_csr(0x800, (IRQ_STA&(~0x08)));
2000031a:	429c                	lw	a5,0(a3)
2000031c:	9bdd                	andi	a5,a5,-9
2000031e:	80079073          	csrw	0x800,a5
C:\MRS_DATA\workspace\queue1\StdPeriphDriver\inc/CH59x_sys.h:187
    SAFEOPERATE;
20000322:	0001                	nop
20000324:	0001                	nop
C:\MRS_DATA\workspace\queue1\StdPeriphDriver\inc/CH59x_sys.h:188
    R8_SAFE_ACCESS_SIG = SAFE_ACCESS_SIG1;
20000326:	400017b7          	lui	a5,0x40001
2000032a:	05700713          	li	a4,87
2000032e:	04e78023          	sb	a4,64(a5) # 40001040 <_eusrstack+0x1fffa840>
C:\MRS_DATA\workspace\queue1\StdPeriphDriver\inc/CH59x_sys.h:189
    R8_SAFE_ACCESS_SIG = SAFE_ACCESS_SIG2;
20000332:	fa800713          	li	a4,-88
20000336:	04e78023          	sb	a4,64(a5)
C:\MRS_DATA\workspace\queue1\StdPeriphDriver\inc/CH59x_sys.h:190
    SAFEOPERATE;
2000033a:	0001                	nop
2000033c:	0001                	nop
SYS_ResetExecute():
C:\MRS_DATA\workspace\queue1\obj/../StdPeriphDriver/CH59x_sys.c:134
    sys_safe_access_enable();
    R8_RST_WDOG_CTRL |= RB_SOFTWARE_RESET;
2000033e:	0467c703          	lbu	a4,70(a5)
20000342:	00176713          	ori	a4,a4,1
20000346:	04e78323          	sb	a4,70(a5)
sys_safe_access_disable():
C:\MRS_DATA\workspace\queue1\StdPeriphDriver\inc/CH59x_sys.h:195
    R8_SAFE_ACCESS_SIG = 0;
2000034a:	04078023          	sb	zero,64(a5)
C:\MRS_DATA\workspace\queue1\StdPeriphDriver\inc/CH59x_sys.h:196
    write_csr(0x800, read_csr(0x800)|(IRQ_STA&0x08));
2000034e:	80002773          	csrr	a4,0x800
20000352:	429c                	lw	a5,0(a3)
20000354:	8ba1                	andi	a5,a5,8
20000356:	8fd9                	or	a5,a5,a4
20000358:	80079073          	csrw	0x800,a5
C:\MRS_DATA\workspace\queue1\StdPeriphDriver\inc/CH59x_sys.h:197
    IRQ_STA = 0;
2000035c:	8001a623          	sw	zero,-2036(gp) # 200008f4 <IRQ_STA>
C:\MRS_DATA\workspace\queue1\StdPeriphDriver\inc/CH59x_sys.h:198
    SAFEOPERATE;
20000360:	0001                	nop
20000362:	0001                	nop
SYS_ResetExecute():
C:\MRS_DATA\workspace\queue1\obj/../StdPeriphDriver/CH59x_sys.c:136
    sys_safe_access_disable();
}
20000364:	40b2                	lw	ra,12(sp)
20000366:	0141                	addi	sp,sp,16
20000368:	8082                	ret

2000036a <HardFault_Handler>:
HardFault_Handler():
C:\MRS_DATA\workspace\queue1\obj/../StdPeriphDriver/CH59x_sys.c:270
__INTERRUPT
__HIGH_CODE
__attribute__((weak))
void HardFault_Handler(void)
{
    FLASH_ROM_SW_RESET();
2000036a:	4681                	li	a3,0
2000036c:	4601                	li	a2,0
2000036e:	4581                	li	a1,0
20000370:	4511                	li	a0,4
20000372:	2265                	jal	2000051a <FLASH_EEPROM_CMD>
sys_safe_access_enable():
C:\MRS_DATA\workspace\queue1\StdPeriphDriver\inc/CH59x_sys.h:182
    if(read_csr(0x800)&0x08)
20000374:	800027f3          	csrr	a5,0x800
20000378:	8ba1                	andi	a5,a5,8
2000037a:	80c18713          	addi	a4,gp,-2036 # 200008f4 <IRQ_STA>
2000037e:	cb89                	beqz	a5,20000390 <HardFault_Handler+0x26>
C:\MRS_DATA\workspace\queue1\StdPeriphDriver\inc/CH59x_sys.h:184
        IRQ_STA = read_csr(0x800);
20000380:	800027f3          	csrr	a5,0x800
20000384:	80f1a623          	sw	a5,-2036(gp) # 200008f4 <IRQ_STA>
C:\MRS_DATA\workspace\queue1\StdPeriphDriver\inc/CH59x_sys.h:185
        write_csr(0x800, (IRQ_STA&(~0x08)));
20000388:	431c                	lw	a5,0(a4)
2000038a:	9bdd                	andi	a5,a5,-9
2000038c:	80079073          	csrw	0x800,a5
C:\MRS_DATA\workspace\queue1\StdPeriphDriver\inc/CH59x_sys.h:187
    SAFEOPERATE;
20000390:	0001                	nop
20000392:	0001                	nop
C:\MRS_DATA\workspace\queue1\StdPeriphDriver\inc/CH59x_sys.h:188
    R8_SAFE_ACCESS_SIG = SAFE_ACCESS_SIG1;
20000394:	400017b7          	lui	a5,0x40001
20000398:	05700693          	li	a3,87
2000039c:	04d78023          	sb	a3,64(a5) # 40001040 <_eusrstack+0x1fffa840>
C:\MRS_DATA\workspace\queue1\StdPeriphDriver\inc/CH59x_sys.h:189
    R8_SAFE_ACCESS_SIG = SAFE_ACCESS_SIG2;
200003a0:	fa800693          	li	a3,-88
200003a4:	04d78023          	sb	a3,64(a5)
C:\MRS_DATA\workspace\queue1\StdPeriphDriver\inc/CH59x_sys.h:190
    SAFEOPERATE;
200003a8:	0001                	nop
200003aa:	0001                	nop
HardFault_Handler():
C:\MRS_DATA\workspace\queue1\obj/../StdPeriphDriver/CH59x_sys.c:272
    sys_safe_access_enable();
    R16_INT32K_TUNE = 0xFFFF;
200003ac:	56fd                	li	a3,-1
200003ae:	02d79623          	sh	a3,44(a5)
sys_safe_access_disable():
C:\MRS_DATA\workspace\queue1\StdPeriphDriver\inc/CH59x_sys.h:195
    R8_SAFE_ACCESS_SIG = 0;
200003b2:	04078023          	sb	zero,64(a5)
C:\MRS_DATA\workspace\queue1\StdPeriphDriver\inc/CH59x_sys.h:196
    write_csr(0x800, read_csr(0x800)|(IRQ_STA&0x08));
200003b6:	800026f3          	csrr	a3,0x800
200003ba:	431c                	lw	a5,0(a4)
200003bc:	8ba1                	andi	a5,a5,8
200003be:	8fd5                	or	a5,a5,a3
200003c0:	80079073          	csrw	0x800,a5
C:\MRS_DATA\workspace\queue1\StdPeriphDriver\inc/CH59x_sys.h:197
    IRQ_STA = 0;
200003c4:	8001a623          	sw	zero,-2036(gp) # 200008f4 <IRQ_STA>
C:\MRS_DATA\workspace\queue1\StdPeriphDriver\inc/CH59x_sys.h:198
    SAFEOPERATE;
200003c8:	0001                	nop
200003ca:	0001                	nop
sys_safe_access_enable():
C:\MRS_DATA\workspace\queue1\StdPeriphDriver\inc/CH59x_sys.h:182
    if(read_csr(0x800)&0x08)
200003cc:	800027f3          	csrr	a5,0x800
200003d0:	8ba1                	andi	a5,a5,8
200003d2:	cb89                	beqz	a5,200003e4 <HardFault_Handler+0x7a>
C:\MRS_DATA\workspace\queue1\StdPeriphDriver\inc/CH59x_sys.h:184
        IRQ_STA = read_csr(0x800);
200003d4:	800027f3          	csrr	a5,0x800
200003d8:	80f1a623          	sw	a5,-2036(gp) # 200008f4 <IRQ_STA>
C:\MRS_DATA\workspace\queue1\StdPeriphDriver\inc/CH59x_sys.h:185
        write_csr(0x800, (IRQ_STA&(~0x08)));
200003dc:	431c                	lw	a5,0(a4)
200003de:	9bdd                	andi	a5,a5,-9
200003e0:	80079073          	csrw	0x800,a5
C:\MRS_DATA\workspace\queue1\StdPeriphDriver\inc/CH59x_sys.h:187
    SAFEOPERATE;
200003e4:	0001                	nop
200003e6:	0001                	nop
C:\MRS_DATA\workspace\queue1\StdPeriphDriver\inc/CH59x_sys.h:188
    R8_SAFE_ACCESS_SIG = SAFE_ACCESS_SIG1;
200003e8:	400017b7          	lui	a5,0x40001
200003ec:	05700693          	li	a3,87
200003f0:	04d78023          	sb	a3,64(a5) # 40001040 <_eusrstack+0x1fffa840>
C:\MRS_DATA\workspace\queue1\StdPeriphDriver\inc/CH59x_sys.h:189
    R8_SAFE_ACCESS_SIG = SAFE_ACCESS_SIG2;
200003f4:	fa800693          	li	a3,-88
200003f8:	04d78023          	sb	a3,64(a5)
C:\MRS_DATA\workspace\queue1\StdPeriphDriver\inc/CH59x_sys.h:190
    SAFEOPERATE;
200003fc:	0001                	nop
200003fe:	0001                	nop
HardFault_Handler():
C:\MRS_DATA\workspace\queue1\obj/../StdPeriphDriver/CH59x_sys.c:275
    sys_safe_access_disable();
    sys_safe_access_enable();
    R8_RST_WDOG_CTRL |= RB_SOFTWARE_RESET;
20000400:	0467c683          	lbu	a3,70(a5)
20000404:	0016e693          	ori	a3,a3,1
20000408:	04d78323          	sb	a3,70(a5)
sys_safe_access_disable():
C:\MRS_DATA\workspace\queue1\StdPeriphDriver\inc/CH59x_sys.h:195
    R8_SAFE_ACCESS_SIG = 0;
2000040c:	04078023          	sb	zero,64(a5)
C:\MRS_DATA\workspace\queue1\StdPeriphDriver\inc/CH59x_sys.h:196
    write_csr(0x800, read_csr(0x800)|(IRQ_STA&0x08));
20000410:	800026f3          	csrr	a3,0x800
20000414:	431c                	lw	a5,0(a4)
20000416:	8ba1                	andi	a5,a5,8
20000418:	8fd5                	or	a5,a5,a3
2000041a:	80079073          	csrw	0x800,a5
C:\MRS_DATA\workspace\queue1\StdPeriphDriver\inc/CH59x_sys.h:197
    IRQ_STA = 0;
2000041e:	8001a623          	sw	zero,-2036(gp) # 200008f4 <IRQ_STA>
C:\MRS_DATA\workspace\queue1\StdPeriphDriver\inc/CH59x_sys.h:198
    SAFEOPERATE;
20000422:	0001                	nop
20000424:	0001                	nop
HardFault_Handler():
C:\MRS_DATA\workspace\queue1\obj/../StdPeriphDriver/CH59x_sys.c:277 (discriminator 1)
    sys_safe_access_disable();
    while(1);
20000426:	a001                	j	20000426 <HardFault_Handler+0xbc>

20000428 <mDelayuS>:
mDelayuS():
C:\MRS_DATA\workspace\queue1\obj/../StdPeriphDriver/CH59x_sys.c:296
{
    uint32_t i;
#if(FREQ_SYS == 80000000)
    i = t * 20;
#elif(FREQ_SYS == 60000000)
    i = t * 15;
20000428:	47bd                	li	a5,15
2000042a:	02f50533          	mul	a0,a0,a5
C:\MRS_DATA\workspace\queue1\obj/../StdPeriphDriver/CH59x_sys.c:320 (discriminator 1)
#else
    i = t << 1;
#endif
    do
    {
        __nop();
2000042e:	0001                	nop
C:\MRS_DATA\workspace\queue1\obj/../StdPeriphDriver/CH59x_sys.c:321 (discriminator 1)
    } while(--i);
20000430:	157d                	addi	a0,a0,-1
20000432:	fd75                	bnez	a0,2000042e <mDelayuS+0x6>
C:\MRS_DATA\workspace\queue1\obj/../StdPeriphDriver/CH59x_sys.c:322
}
20000434:	8082                	ret

20000436 <mDelaymS>:
mDelaymS():
C:\MRS_DATA\workspace\queue1\obj/../StdPeriphDriver/CH59x_sys.c:335
 *
 * @return  none
 */
__HIGH_CODE
void mDelaymS(uint16_t t)
{
20000436:	1141                	addi	sp,sp,-16
20000438:	c422                	sw	s0,8(sp)
2000043a:	c226                	sw	s1,4(sp)
2000043c:	c606                	sw	ra,12(sp)
2000043e:	84aa                	mv	s1,a0
C:\MRS_DATA\workspace\queue1\obj/../StdPeriphDriver/CH59x_sys.c:338
    uint16_t i;

    for(i = 0; i < t; i++)
20000440:	4401                	li	s0,0
C:\MRS_DATA\workspace\queue1\obj/../StdPeriphDriver/CH59x_sys.c:338 (discriminator 1)
20000442:	00941763          	bne	s0,s1,20000450 <mDelaymS+0x1a>
C:\MRS_DATA\workspace\queue1\obj/../StdPeriphDriver/CH59x_sys.c:342
    {
        mDelayuS(1000);
    }
}
20000446:	40b2                	lw	ra,12(sp)
20000448:	4422                	lw	s0,8(sp)
2000044a:	4492                	lw	s1,4(sp)
2000044c:	0141                	addi	sp,sp,16
2000044e:	8082                	ret
C:\MRS_DATA\workspace\queue1\obj/../StdPeriphDriver/CH59x_sys.c:338 (discriminator 3)
    for(i = 0; i < t; i++)
20000450:	0405                	addi	s0,s0,1
C:\MRS_DATA\workspace\queue1\obj/../StdPeriphDriver/CH59x_sys.c:340 (discriminator 3)
        mDelayuS(1000);
20000452:	3e800513          	li	a0,1000
C:\MRS_DATA\workspace\queue1\obj/../StdPeriphDriver/CH59x_sys.c:338 (discriminator 3)
    for(i = 0; i < t; i++)
20000456:	0442                	slli	s0,s0,0x10
C:\MRS_DATA\workspace\queue1\obj/../StdPeriphDriver/CH59x_sys.c:340 (discriminator 3)
        mDelayuS(1000);
20000458:	3fc1                	jal	20000428 <mDelayuS>
C:\MRS_DATA\workspace\queue1\obj/../StdPeriphDriver/CH59x_sys.c:338 (discriminator 3)
    for(i = 0; i < t; i++)
2000045a:	8041                	srli	s0,s0,0x10
2000045c:	b7dd                	j	20000442 <mDelaymS+0xc>

2000045e <FLASH_ROM_BEG>:
FLASH_ROM_BEG():
2000045e:	80040323          	sb	zero,-2042(s0)
20000462:	4715                	li	a4,5
20000464:	80e40323          	sb	a4,-2042(s0)
20000468:	0001                	nop
2000046a:	80a40223          	sb	a0,-2044(s0)
2000046e:	8082                	ret

20000470 <FLASH_ROM_END>:
FLASH_ROM_END():
20000470:	80640783          	lb	a5,-2042(s0)
20000474:	fe07cee3          	bltz	a5,20000470 <FLASH_ROM_END>
20000478:	80040323          	sb	zero,-2042(s0)
2000047c:	8082                	ret

2000047e <FLASH_ROM_IN>:
FLASH_ROM_IN():
2000047e:	80640783          	lb	a5,-2042(s0)
20000482:	fe07cee3          	bltz	a5,2000047e <FLASH_ROM_IN>
20000486:	80444503          	lbu	a0,-2044(s0)
2000048a:	8082                	ret

2000048c <FLASH_ROM_OUT>:
FLASH_ROM_OUT():
2000048c:	80640783          	lb	a5,-2042(s0)
20000490:	fe07cee3          	bltz	a5,2000048c <FLASH_ROM_OUT>
20000494:	80a40223          	sb	a0,-2044(s0)
20000498:	8082                	ret

2000049a <FLASH_ROM_ADDR>:
FLASH_ROM_ADDR():
2000049a:	1141                	addi	sp,sp,-16
2000049c:	c426                	sw	s1,8(sp)
2000049e:	c24a                	sw	s2,4(sp)
200004a0:	c04e                	sw	s3,0(sp)
200004a2:	c606                	sw	ra,12(sp)
200004a4:	0bf57713          	andi	a4,a0,191
200004a8:	47ad                	li	a5,11
200004aa:	89aa                	mv	s3,a0
200004ac:	892e                	mv	s2,a1
200004ae:	4495                	li	s1,5
200004b0:	00f70663          	beq	a4,a5,200004bc <FLASH_ROM_ADDR+0x22>
200004b4:	4519                	li	a0,6
200004b6:	3765                	jal	2000045e <FLASH_ROM_BEG>
200004b8:	3f65                	jal	20000470 <FLASH_ROM_END>
200004ba:	448d                	li	s1,3
200004bc:	854e                	mv	a0,s3
200004be:	3745                	jal	2000045e <FLASH_ROM_BEG>
200004c0:	59fd                	li	s3,-1
200004c2:	14fd                	addi	s1,s1,-1
200004c4:	01349863          	bne	s1,s3,200004d4 <FLASH_ROM_ADDR+0x3a>
200004c8:	40b2                	lw	ra,12(sp)
200004ca:	44a2                	lw	s1,8(sp)
200004cc:	4912                	lw	s2,4(sp)
200004ce:	4982                	lw	s3,0(sp)
200004d0:	0141                	addi	sp,sp,16
200004d2:	8082                	ret
200004d4:	01095513          	srli	a0,s2,0x10
200004d8:	0ff57513          	andi	a0,a0,255
200004dc:	3f45                	jal	2000048c <FLASH_ROM_OUT>
200004de:	0922                	slli	s2,s2,0x8
200004e0:	b7cd                	j	200004c2 <FLASH_ROM_ADDR+0x28>

200004e2 <FLASH_ROM_WAIT>:
FLASH_ROM_WAIT():
200004e2:	1101                	addi	sp,sp,-32
200004e4:	cc26                	sw	s1,24(sp)
200004e6:	ce06                	sw	ra,28(sp)
200004e8:	000804b7          	lui	s1,0x80
200004ec:	3751                	jal	20000470 <FLASH_ROM_END>
200004ee:	4515                	li	a0,5
200004f0:	37bd                	jal	2000045e <FLASH_ROM_BEG>
200004f2:	3771                	jal	2000047e <FLASH_ROM_IN>
200004f4:	3769                	jal	2000047e <FLASH_ROM_IN>
200004f6:	c62a                	sw	a0,12(sp)
200004f8:	3fa5                	jal	20000470 <FLASH_ROM_END>
200004fa:	4532                	lw	a0,12(sp)
200004fc:	00157793          	andi	a5,a0,1
20000500:	eb89                	bnez	a5,20000512 <FLASH_ROM_WAIT+0x30>
20000502:	00156513          	ori	a0,a0,1
20000506:	0ff57513          	andi	a0,a0,255
2000050a:	40f2                	lw	ra,28(sp)
2000050c:	44e2                	lw	s1,24(sp)
2000050e:	6105                	addi	sp,sp,32
20000510:	8082                	ret
20000512:	14fd                	addi	s1,s1,-1
20000514:	fce9                	bnez	s1,200004ee <FLASH_ROM_WAIT+0xc>
20000516:	4501                	li	a0,0
20000518:	bfcd                	j	2000050a <FLASH_ROM_WAIT+0x28>

2000051a <FLASH_EEPROM_CMD>:
FLASH_EEPROM_CMD():
2000051a:	7139                	addi	sp,sp,-64
2000051c:	dc26                	sw	s1,56(sp)
2000051e:	da4a                	sw	s2,52(sp)
20000520:	d84e                	sw	s3,48(sp)
20000522:	d652                	sw	s4,44(sp)
20000524:	d456                	sw	s5,40(sp)
20000526:	d25a                	sw	s6,36(sp)
20000528:	d05e                	sw	s7,32(sp)
2000052a:	de06                	sw	ra,60(sp)
2000052c:	ce62                	sw	s8,28(sp)
2000052e:	cc66                	sw	s9,24(sp)
20000530:	e000e7b7          	lui	a5,0xe000e
20000534:	577d                	li	a4,-1
20000536:	0007aa83          	lw	s5,0(a5) # e000e000 <_eusrstack+0xc0007800>
2000053a:	c622                	sw	s0,12(sp)
2000053c:	0047aa03          	lw	s4,4(a5)
20000540:	18e7a023          	sw	a4,384(a5)
20000544:	18e7a223          	sw	a4,388(a5)
20000548:	400017b7          	lui	a5,0x40001
2000054c:	05700713          	li	a4,87
20000550:	04e78023          	sb	a4,64(a5) # 40001040 <_eusrstack+0x1fffa840>
20000554:	fa800713          	li	a4,-88
20000558:	04e78023          	sb	a4,64(a5)
2000055c:	0447c783          	lbu	a5,68(a5)
20000560:	ff750b93          	addi	s7,a0,-9
20000564:	84b6                	mv	s1,a3
20000566:	07e2                	slli	a5,a5,0x18
20000568:	0ffbfb93          	andi	s7,s7,255
2000056c:	4685                	li	a3,1
2000056e:	89aa                	mv	s3,a0
20000570:	8b2e                	mv	s6,a1
20000572:	8932                	mv	s2,a2
20000574:	40002437          	lui	s0,0x40002
20000578:	87e1                	srai	a5,a5,0x18
2000057a:	5701                	li	a4,-32
2000057c:	0176fa63          	bgeu	a3,s7,20000590 <FLASH_EEPROM_CMD+0x76>
20000580:	00d50863          	beq	a0,a3,20000590 <FLASH_EEPROM_CMD+0x76>
20000584:	4689                	li	a3,2
20000586:	02000713          	li	a4,32
2000058a:	00d51363          	bne	a0,a3,20000590 <FLASH_EEPROM_CMD+0x76>
2000058e:	5701                	li	a4,-32
20000590:	8fd9                	or	a5,a5,a4
20000592:	0ff7f793          	andi	a5,a5,255
20000596:	40001cb7          	lui	s9,0x40001
2000059a:	04fc8223          	sb	a5,68(s9) # 40001044 <_eusrstack+0x1fffa844>
2000059e:	4711                	li	a4,4
200005a0:	80e40323          	sb	a4,-2042(s0) # 40001806 <_eusrstack+0x1fffb006>
200005a4:	0ff00513          	li	a0,255
200005a8:	3d5d                	jal	2000045e <FLASH_ROM_BEG>
200005aa:	4c09                	li	s8,2
200005ac:	35d1                	jal	20000470 <FLASH_ROM_END>
200005ae:	117c6d63          	bltu	s8,s7,200006c8 <FLASH_EEPROM_CMD+0x1ae>
200005b2:	000705b7          	lui	a1,0x70
200005b6:	95da                	add	a1,a1,s6
200005b8:	00078737          	lui	a4,0x78
200005bc:	5579                	li	a0,-2
200005be:	04e5f263          	bgeu	a1,a4,20000602 <FLASH_EEPROM_CMD+0xe8>
200005c2:	009587b3          	add	a5,a1,s1
200005c6:	02f76e63          	bltu	a4,a5,20000602 <FLASH_EEPROM_CMD+0xe8>
200005ca:	00080b37          	lui	s6,0x80
200005ce:	47a9                	li	a5,10
200005d0:	0165eb33          	or	s6,a1,s6
200005d4:	06f99963          	bne	s3,a5,20000646 <FLASH_EEPROM_CMD+0x12c>
200005d8:	e489                	bnez	s1,200005e2 <FLASH_EEPROM_CMD+0xc8>
200005da:	4481                	li	s1,0
200005dc:	3d51                	jal	20000470 <FLASH_ROM_END>
200005de:	8526                	mv	a0,s1
200005e0:	a00d                	j	20000602 <FLASH_EEPROM_CMD+0xe8>
200005e2:	85da                	mv	a1,s6
200005e4:	4509                	li	a0,2
200005e6:	3d55                	jal	2000049a <FLASH_ROM_ADDR>
200005e8:	0905                	addi	s2,s2,1
200005ea:	fff94503          	lbu	a0,-1(s2)
200005ee:	14fd                	addi	s1,s1,-1
200005f0:	0b05                	addi	s6,s6,1
200005f2:	3d69                	jal	2000048c <FLASH_ROM_OUT>
200005f4:	c481                	beqz	s1,200005fc <FLASH_EEPROM_CMD+0xe2>
200005f6:	0ffb7793          	andi	a5,s6,255
200005fa:	f7fd                	bnez	a5,200005e8 <FLASH_EEPROM_CMD+0xce>
200005fc:	35dd                	jal	200004e2 <FLASH_ROM_WAIT>
200005fe:	fd69                	bnez	a0,200005d8 <FLASH_EEPROM_CMD+0xbe>
20000600:	557d                	li	a0,-1
20000602:	400017b7          	lui	a5,0x40001
20000606:	05700713          	li	a4,87
2000060a:	04e78023          	sb	a4,64(a5) # 40001040 <_eusrstack+0x1fffa840>
2000060e:	fa800713          	li	a4,-88
20000612:	04e78023          	sb	a4,64(a5)
20000616:	0447c703          	lbu	a4,68(a5)
2000061a:	8b41                	andi	a4,a4,16
2000061c:	04e78223          	sb	a4,68(a5)
20000620:	50f2                	lw	ra,60(sp)
20000622:	e000e7b7          	lui	a5,0xe000e
20000626:	1157a023          	sw	s5,256(a5) # e000e100 <_eusrstack+0xc0007900>
2000062a:	1147a223          	sw	s4,260(a5)
2000062e:	54e2                	lw	s1,56(sp)
20000630:	4432                	lw	s0,12(sp)
20000632:	5952                	lw	s2,52(sp)
20000634:	59c2                	lw	s3,48(sp)
20000636:	5a32                	lw	s4,44(sp)
20000638:	5aa2                	lw	s5,40(sp)
2000063a:	5b12                	lw	s6,36(sp)
2000063c:	5b82                	lw	s7,32(sp)
2000063e:	4c72                	lw	s8,28(sp)
20000640:	4ce2                	lw	s9,24(sp)
20000642:	6121                	addi	sp,sp,64
20000644:	8082                	ret
20000646:	47a5                	li	a5,9
20000648:	06f99563          	bne	s3,a5,200006b2 <FLASH_EEPROM_CMD+0x198>
2000064c:	6985                	lui	s3,0x1
2000064e:	0ff00913          	li	s2,255
20000652:	009906b3          	add	a3,s2,s1
20000656:	012b74b3          	and	s1,s6,s2
2000065a:	94b6                	add	s1,s1,a3
2000065c:	fff94913          	not	s2,s2
20000660:	009974b3          	and	s1,s2,s1
20000664:	6b85                	lui	s7,0x1
20000666:	01697933          	and	s2,s2,s6
2000066a:	6b41                	lui	s6,0x10
2000066c:	fff98793          	addi	a5,s3,-1 # fff <UART1_DefInit+0x2b>
20000670:	0127f7b3          	and	a5,a5,s2
20000674:	e399                	bnez	a5,2000067a <FLASH_EEPROM_CMD+0x160>
20000676:	0134fc63          	bgeu	s1,s3,2000068e <FLASH_EEPROM_CMD+0x174>
2000067a:	0049d993          	srli	s3,s3,0x4
2000067e:	47c1                	li	a5,16
20000680:	ff37e6e3          	bltu	a5,s3,2000066c <FLASH_EEPROM_CMD+0x152>
20000684:	bf99                	j	200005da <FLASH_EEPROM_CMD+0xc0>
20000686:	6905                	lui	s2,0x1
20000688:	69c1                	lui	s3,0x10
2000068a:	197d                	addi	s2,s2,-1
2000068c:	b7d9                	j	20000652 <FLASH_EEPROM_CMD+0x138>
2000068e:	0d800513          	li	a0,216
20000692:	01698863          	beq	s3,s6,200006a2 <FLASH_EEPROM_CMD+0x188>
20000696:	02000513          	li	a0,32
2000069a:	01798463          	beq	s3,s7,200006a2 <FLASH_EEPROM_CMD+0x188>
2000069e:	08100513          	li	a0,129
200006a2:	85ca                	mv	a1,s2
200006a4:	3bdd                	jal	2000049a <FLASH_ROM_ADDR>
200006a6:	3d35                	jal	200004e2 <FLASH_ROM_WAIT>
200006a8:	dd21                	beqz	a0,20000600 <FLASH_EEPROM_CMD+0xe6>
200006aa:	994e                	add	s2,s2,s3
200006ac:	413484b3          	sub	s1,s1,s3
200006b0:	b7d9                	j	20000676 <FLASH_EEPROM_CMD+0x15c>
200006b2:	85da                	mv	a1,s6
200006b4:	452d                	li	a0,11
200006b6:	33d5                	jal	2000049a <FLASH_ROM_ADDR>
200006b8:	94ca                	add	s1,s1,s2
200006ba:	f29900e3          	beq	s2,s1,200005da <FLASH_EEPROM_CMD+0xc0>
200006be:	0905                	addi	s2,s2,1
200006c0:	3b7d                	jal	2000047e <FLASH_ROM_IN>
200006c2:	fea90fa3          	sb	a0,-1(s2) # fff <UART1_DefInit+0x2b>
200006c6:	bfd5                	j	200006ba <FLASH_EEPROM_CMD+0x1a0>
200006c8:	fff98793          	addi	a5,s3,-1 # ffff <_data_lma+0xe21f>
200006cc:	0ff7f793          	andi	a5,a5,255
200006d0:	0cfc6163          	bltu	s8,a5,20000792 <.loop402+0x7a>
200006d4:	041cc783          	lbu	a5,65(s9)
200006d8:	08300713          	li	a4,131
200006dc:	04f71f63          	bne	a4,a5,2000073a <.loop402+0x22>
200006e0:	00080737          	lui	a4,0x80
200006e4:	04eb6b63          	bltu	s6,a4,2000073a <.loop402+0x22>
200006e8:	009b07b3          	add	a5,s6,s1
200006ec:	001006b7          	lui	a3,0x100
200006f0:	04d7f563          	bgeu	a5,a3,2000073a <.loop402+0x22>
200006f4:	00eb4b33          	xor	s6,s6,a4
200006f8:	4789                	li	a5,2
200006fa:	06f99363          	bne	s3,a5,20000760 <.loop402+0x48>
200006fe:	8089                	srli	s1,s1,0x2
20000700:	49d5                	li	s3,21
20000702:	ec048ce3          	beqz	s1,200005da <FLASH_EEPROM_CMD+0xc0>
20000706:	85da                	mv	a1,s6
20000708:	4509                	li	a0,2
2000070a:	3b41                	jal	2000049a <FLASH_ROM_ADDR>
2000070c:	0911                	addi	s2,s2,4
2000070e:	ffc92703          	lw	a4,-4(s2)
20000712:	4791                	li	a5,4
20000714:	80e42023          	sw	a4,-2048(s0)

20000718 <.loop402>:
20000718:	80640703          	lb	a4,-2042(s0)
2000071c:	fe074ee3          	bltz	a4,20000718 <.loop402>
20000720:	81340323          	sb	s3,-2042(s0)
20000724:	17fd                	addi	a5,a5,-1
20000726:	fbed                	bnez	a5,20000718 <.loop402>
20000728:	14fd                	addi	s1,s1,-1
2000072a:	0b11                	addi	s6,s6,4
2000072c:	c481                	beqz	s1,20000734 <.loop402+0x1c>
2000072e:	0ffb7793          	andi	a5,s6,255
20000732:	ffe9                	bnez	a5,2000070c <FLASH_EEPROM_CMD+0x1f2>
20000734:	337d                	jal	200004e2 <FLASH_ROM_WAIT>
20000736:	f571                	bnez	a0,20000702 <FLASH_EEPROM_CMD+0x1e8>
20000738:	b5e1                	j	20000600 <FLASH_EEPROM_CMD+0xe6>
2000073a:	400017b7          	lui	a5,0x40001
2000073e:	0457c703          	lbu	a4,69(a5) # 40001045 <_eusrstack+0x1fffa845>
20000742:	000807b7          	lui	a5,0x80
20000746:	02077713          	andi	a4,a4,32
2000074a:	e319                	bnez	a4,20000750 <.loop402+0x38>
2000074c:	000787b7          	lui	a5,0x78
20000750:	5579                	li	a0,-2
20000752:	eafb78e3          	bgeu	s6,a5,20000602 <FLASH_EEPROM_CMD+0xe8>
20000756:	009b0733          	add	a4,s6,s1
2000075a:	f8e7ffe3          	bgeu	a5,a4,200006f8 <FLASH_EEPROM_CMD+0x1de>
2000075e:	b555                	j	20000602 <FLASH_EEPROM_CMD+0xe8>
20000760:	4785                	li	a5,1
20000762:	f2f982e3          	beq	s3,a5,20000686 <FLASH_EEPROM_CMD+0x16c>
20000766:	85da                	mv	a1,s6
20000768:	452d                	li	a0,11
2000076a:	3b05                	jal	2000049a <FLASH_ROM_ADDR>
2000076c:	fff48993          	addi	s3,s1,-1 # 7ffff <_data_lma+0x7e21f>
20000770:	e60485e3          	beqz	s1,200005da <FLASH_EEPROM_CMD+0xc0>
20000774:	3329                	jal	2000047e <FLASH_ROM_IN>
20000776:	0039f793          	andi	a5,s3,3
2000077a:	eb91                	bnez	a5,2000078e <.loop402+0x76>
2000077c:	80042683          	lw	a3,-2048(s0)
20000780:	00092703          	lw	a4,0(s2)
20000784:	00490793          	addi	a5,s2,4
20000788:	e4e69ae3          	bne	a3,a4,200005dc <FLASH_EEPROM_CMD+0xc2>
2000078c:	893e                	mv	s2,a5
2000078e:	84ce                	mv	s1,s3
20000790:	bff1                	j	2000076c <.loop402+0x54>
20000792:	47b5                	li	a5,13
20000794:	00f99663          	bne	s3,a5,200007a0 <.loop402+0x88>
20000798:	0b900513          	li	a0,185
2000079c:	31c9                	jal	2000045e <FLASH_ROM_BEG>
2000079e:	bd35                	j	200005da <FLASH_EEPROM_CMD+0xc0>
200007a0:	47b1                	li	a5,12
200007a2:	0ab00513          	li	a0,171
200007a6:	fef98be3          	beq	s3,a5,2000079c <.loop402+0x84>
200007aa:	4799                	li	a5,6
200007ac:	04f99163          	bne	s3,a5,200007ee <.loop402+0xd6>
200007b0:	000805b7          	lui	a1,0x80
200007b4:	00bb65b3          	or	a1,s6,a1
200007b8:	452d                	li	a0,11
200007ba:	31c5                	jal	2000049a <FLASH_ROM_ADDR>
200007bc:	4481                	li	s1,0
200007be:	4b8d                	li	s7,3
200007c0:	49a1                	li	s3,8
200007c2:	3975                	jal	2000047e <FLASH_ROM_IN>
200007c4:	01749663          	bne	s1,s7,200007d0 <.loop402+0xb8>
200007c8:	80042783          	lw	a5,-2048(s0)
200007cc:	00f92023          	sw	a5,0(s2)
200007d0:	0485                	addi	s1,s1,1
200007d2:	ff3498e3          	bne	s1,s3,200007c2 <.loop402+0xaa>
200007d6:	80042783          	lw	a5,-2048(s0)
200007da:	012b1713          	slli	a4,s6,0x12
200007de:	00075563          	bgez	a4,200007e8 <.loop402+0xd0>
200007e2:	00f91223          	sh	a5,4(s2)
200007e6:	bbd5                	j	200005da <FLASH_EEPROM_CMD+0xc0>
200007e8:	00f92223          	sw	a5,4(s2)
200007ec:	b3fd                	j	200005da <FLASH_EEPROM_CMD+0xc0>
200007ee:	479d                	li	a5,7
200007f0:	02f99963          	bne	s3,a5,20000822 <.loop402+0x10a>
200007f4:	4581                	li	a1,0
200007f6:	04b00513          	li	a0,75
200007fa:	3145                	jal	2000049a <FLASH_ROM_ADDR>
200007fc:	44bd                	li	s1,15
200007fe:	00092023          	sw	zero,0(s2)
20000802:	00092223          	sw	zero,4(s2)
20000806:	59fd                	li	s3,-1
20000808:	399d                	jal	2000047e <FLASH_ROM_IN>
2000080a:	0074f793          	andi	a5,s1,7
2000080e:	97ca                	add	a5,a5,s2
20000810:	0007c703          	lbu	a4,0(a5) # 78000 <_data_lma+0x76220>
20000814:	14fd                	addi	s1,s1,-1
20000816:	8d39                	xor	a0,a0,a4
20000818:	00a78023          	sb	a0,0(a5)
2000081c:	ff3496e3          	bne	s1,s3,20000808 <.loop402+0xf0>
20000820:	bb6d                	j	200005da <FLASH_EEPROM_CMD+0xc0>
20000822:	47a1                	li	a5,8
20000824:	04f99263          	bne	s3,a5,20000868 <.loop402+0x150>
20000828:	396d                	jal	200004e2 <FLASH_ROM_WAIT>
2000082a:	4481                	li	s1,0
2000082c:	000b0d63          	beqz	s6,20000846 <.loop402+0x12e>
20000830:	478d                	li	a5,3
20000832:	03c00493          	li	s1,60
20000836:	00fb0863          	beq	s6,a5,20000846 <.loop402+0x12e>
2000083a:	05000493          	li	s1,80
2000083e:	018b0463          	beq	s6,s8,20000846 <.loop402+0x12e>
20000842:	04400493          	li	s1,68
20000846:	07c57513          	andi	a0,a0,124
2000084a:	d89508e3          	beq	a0,s1,200005da <FLASH_EEPROM_CMD+0xc0>
2000084e:	4519                	li	a0,6
20000850:	3139                	jal	2000045e <FLASH_ROM_BEG>
20000852:	3939                	jal	20000470 <FLASH_ROM_END>
20000854:	4505                	li	a0,1
20000856:	3121                	jal	2000045e <FLASH_ROM_BEG>
20000858:	8526                	mv	a0,s1
2000085a:	390d                	jal	2000048c <FLASH_ROM_OUT>
2000085c:	4509                	li	a0,2
2000085e:	313d                	jal	2000048c <FLASH_ROM_OUT>
20000860:	3149                	jal	200004e2 <FLASH_ROM_WAIT>
20000862:	d6051ce3          	bnez	a0,200005da <FLASH_EEPROM_CMD+0xc0>
20000866:	bb69                	j	20000600 <FLASH_EEPROM_CMD+0xe6>
20000868:	4791                	li	a5,4
2000086a:	00f99963          	bne	s3,a5,2000087c <.loop402+0x164>
2000086e:	06600513          	li	a0,102
20000872:	36f5                	jal	2000045e <FLASH_ROM_BEG>
20000874:	3ef5                	jal	20000470 <FLASH_ROM_END>
20000876:	09900513          	li	a0,153
2000087a:	b70d                	j	2000079c <.loop402+0x84>
2000087c:	d4098fe3          	beqz	s3,200005da <FLASH_EEPROM_CMD+0xc0>
20000880:	54f1                	li	s1,-4
20000882:	bba9                	j	200005dc <FLASH_EEPROM_CMD+0xc2>

Disassembly of section .text:

00000888 <handle_reset>:
handle_reset():
C:\MRS_DATA\workspace\queue1\obj/../Startup/startup_CH592.S:127
	.weak	handle_reset
	.align	1
handle_reset:
.option push 
.option	norelax 
	la gp, __global_pointer$
     888:	20001197          	auipc	gp,0x20001
     88c:	86018193          	addi	gp,gp,-1952 # 200010e8 <__global_pointer$>
C:\MRS_DATA\workspace\queue1\obj/../Startup/startup_CH592.S:130
.option	pop 
1:
	la sp, _eusrstack 
     890:	20006117          	auipc	sp,0x20006
     894:	f7010113          	addi	sp,sp,-144 # 20006800 <_eusrstack>
C:\MRS_DATA\workspace\queue1\obj/../Startup/startup_CH592.S:134

/* Load highcode code  section from flash to RAM */
2:
    la a0, _highcode_lma
     898:	00400513          	li	a0,4
C:\MRS_DATA\workspace\queue1\obj/../Startup/startup_CH592.S:135
    la a1, _highcode_vma_start
     89c:	1ffff597          	auipc	a1,0x1ffff
     8a0:	76458593          	addi	a1,a1,1892 # 20000000 <_highcode_vma_start>
C:\MRS_DATA\workspace\queue1\obj/../Startup/startup_CH592.S:136
    la a2, _highcode_vma_end
     8a4:	20000617          	auipc	a2,0x20000
     8a8:	fe060613          	addi	a2,a2,-32 # 20000884 <_highcode_vma_end>
C:\MRS_DATA\workspace\queue1\obj/../Startup/startup_CH592.S:137
    bgeu a1, a2, 2f
     8ac:	00c5fa63          	bgeu	a1,a2,8c0 <handle_reset+0x38>
C:\MRS_DATA\workspace\queue1\obj/../Startup/startup_CH592.S:139
1:
    lw t0, (a0)
     8b0:	00052283          	lw	t0,0(a0)
C:\MRS_DATA\workspace\queue1\obj/../Startup/startup_CH592.S:140
    sw t0, (a1)
     8b4:	0055a023          	sw	t0,0(a1)
C:\MRS_DATA\workspace\queue1\obj/../Startup/startup_CH592.S:141
    addi a0, a0, 4
     8b8:	0511                	addi	a0,a0,4
C:\MRS_DATA\workspace\queue1\obj/../Startup/startup_CH592.S:142
    addi a1, a1, 4
     8ba:	0591                	addi	a1,a1,4
C:\MRS_DATA\workspace\queue1\obj/../Startup/startup_CH592.S:143
    bltu a1, a2, 1b
     8bc:	fec5eae3          	bltu	a1,a2,8b0 <handle_reset+0x28>
C:\MRS_DATA\workspace\queue1\obj/../Startup/startup_CH592.S:147

/* Load data section from flash to RAM */
2:
	la a0, _data_lma
     8c0:	00001517          	auipc	a0,0x1
     8c4:	52050513          	addi	a0,a0,1312 # 1de0 <_data_lma>
C:\MRS_DATA\workspace\queue1\obj/../Startup/startup_CH592.S:148
	la a1, _data_vma
     8c8:	20000597          	auipc	a1,0x20000
     8cc:	fbc58593          	addi	a1,a1,-68 # 20000884 <_highcode_vma_end>
C:\MRS_DATA\workspace\queue1\obj/../Startup/startup_CH592.S:149
	la a2, _edata
     8d0:	80818613          	addi	a2,gp,-2040 # 200008f0 <_edata>
C:\MRS_DATA\workspace\queue1\obj/../Startup/startup_CH592.S:150
	bgeu a1, a2, 2f
     8d4:	00c5fa63          	bgeu	a1,a2,8e8 <handle_reset+0x60>
C:\MRS_DATA\workspace\queue1\obj/../Startup/startup_CH592.S:152
1:
	lw t0, (a0)
     8d8:	00052283          	lw	t0,0(a0)
C:\MRS_DATA\workspace\queue1\obj/../Startup/startup_CH592.S:153
	sw t0, (a1)
     8dc:	0055a023          	sw	t0,0(a1)
C:\MRS_DATA\workspace\queue1\obj/../Startup/startup_CH592.S:154
	addi a0, a0, 4
     8e0:	0511                	addi	a0,a0,4
C:\MRS_DATA\workspace\queue1\obj/../Startup/startup_CH592.S:155
	addi a1, a1, 4
     8e2:	0591                	addi	a1,a1,4
C:\MRS_DATA\workspace\queue1\obj/../Startup/startup_CH592.S:156
	bltu a1, a2, 1b
     8e4:	fec5eae3          	bltu	a1,a2,8d8 <handle_reset+0x50>
C:\MRS_DATA\workspace\queue1\obj/../Startup/startup_CH592.S:159
2:
	/* clear bss section */
	la a0, _sbss
     8e8:	80818513          	addi	a0,gp,-2040 # 200008f0 <_edata>
C:\MRS_DATA\workspace\queue1\obj/../Startup/startup_CH592.S:160
	la a1, _ebss
     8ec:	d5418593          	addi	a1,gp,-684 # 20000e3c <_ebss>
C:\MRS_DATA\workspace\queue1\obj/../Startup/startup_CH592.S:161
	bgeu a0, a1, 2f
     8f0:	00b57763          	bgeu	a0,a1,8fe <handle_reset+0x76>
C:\MRS_DATA\workspace\queue1\obj/../Startup/startup_CH592.S:163
1:
	sw zero, (a0)
     8f4:	00052023          	sw	zero,0(a0)
C:\MRS_DATA\workspace\queue1\obj/../Startup/startup_CH592.S:164
	addi a0, a0, 4
     8f8:	0511                	addi	a0,a0,4
C:\MRS_DATA\workspace\queue1\obj/../Startup/startup_CH592.S:165
	bltu a0, a1, 1b
     8fa:	feb56de3          	bltu	a0,a1,8f4 <handle_reset+0x6c>
C:\MRS_DATA\workspace\queue1\obj/../Startup/startup_CH592.S:168
2:
	/* 流水线控制位 & 动态预测控制位 */
	li t0, 0x1f
     8fe:	42fd                	li	t0,31
C:\MRS_DATA\workspace\queue1\obj/../Startup/startup_CH592.S:169
	csrw 0xbc0, t0
     900:	bc029073          	csrw	0xbc0,t0
C:\MRS_DATA\workspace\queue1\obj/../Startup/startup_CH592.S:171
	/* 打开嵌套中断、硬件压栈功能 */
	li t0, 0x3
     904:	428d                	li	t0,3
C:\MRS_DATA\workspace\queue1\obj/../Startup/startup_CH592.S:172
	csrw 0x804, t0
     906:	80429073          	csrw	0x804,t0
C:\MRS_DATA\workspace\queue1\obj/../Startup/startup_CH592.S:174
	
    li t0, 0x88
     90a:	08800293          	li	t0,136
C:\MRS_DATA\workspace\queue1\obj/../Startup/startup_CH592.S:175
    csrs mstatus, t0
     90e:	3002a073          	csrs	mstatus,t0
C:\MRS_DATA\workspace\queue1\obj/../Startup/startup_CH592.S:176
	la t0, _vector_base
     912:	1ffff297          	auipc	t0,0x1ffff
     916:	6ee28293          	addi	t0,t0,1774 # 20000000 <_highcode_vma_start>
C:\MRS_DATA\workspace\queue1\obj/../Startup/startup_CH592.S:179

	/* 配置向量表模式为绝对地址模式 */
    ori t0, t0, 3
     91a:	0032e293          	ori	t0,t0,3
C:\MRS_DATA\workspace\queue1\obj/../Startup/startup_CH592.S:180
	csrw mtvec, t0
     91e:	30529073          	csrw	mtvec,t0
C:\MRS_DATA\workspace\queue1\obj/../Startup/startup_CH592.S:182

	la t0, main
     922:	00000297          	auipc	t0,0x0
     926:	24228293          	addi	t0,t0,578 # b64 <main>
C:\MRS_DATA\workspace\queue1\obj/../Startup/startup_CH592.S:183
	csrw mepc, t0
     92a:	34129073          	csrw	mepc,t0
C:\MRS_DATA\workspace\queue1\obj/../Startup/startup_CH592.S:185
	
	mret
     92e:	30200073          	mret

00000932 <memset>:
memset():
     932:	433d                	li	t1,15
     934:	872a                	mv	a4,a0
     936:	02c37363          	bgeu	t1,a2,95c <memset+0x2a>
     93a:	00f77793          	andi	a5,a4,15
     93e:	efbd                	bnez	a5,9bc <memset+0x8a>
     940:	e5ad                	bnez	a1,9aa <memset+0x78>
     942:	ff067693          	andi	a3,a2,-16
     946:	8a3d                	andi	a2,a2,15
     948:	96ba                	add	a3,a3,a4
     94a:	c30c                	sw	a1,0(a4)
     94c:	c34c                	sw	a1,4(a4)
     94e:	c70c                	sw	a1,8(a4)
     950:	c74c                	sw	a1,12(a4)
     952:	0741                	addi	a4,a4,16
     954:	fed76be3          	bltu	a4,a3,94a <memset+0x18>
     958:	e211                	bnez	a2,95c <memset+0x2a>
     95a:	8082                	ret
     95c:	40c306b3          	sub	a3,t1,a2
     960:	068a                	slli	a3,a3,0x2
     962:	00000297          	auipc	t0,0x0
     966:	9696                	add	a3,a3,t0
     968:	00a68067          	jr	10(a3) # 10000a <_data_lma+0xfe22a>
     96c:	00b70723          	sb	a1,14(a4) # 8000e <_data_lma+0x7e22e>
     970:	00b706a3          	sb	a1,13(a4)
     974:	00b70623          	sb	a1,12(a4)
     978:	00b705a3          	sb	a1,11(a4)
     97c:	00b70523          	sb	a1,10(a4)
     980:	00b704a3          	sb	a1,9(a4)
     984:	00b70423          	sb	a1,8(a4)
     988:	00b703a3          	sb	a1,7(a4)
     98c:	00b70323          	sb	a1,6(a4)
     990:	00b702a3          	sb	a1,5(a4)
     994:	00b70223          	sb	a1,4(a4)
     998:	00b701a3          	sb	a1,3(a4)
     99c:	00b70123          	sb	a1,2(a4)
     9a0:	00b700a3          	sb	a1,1(a4)
     9a4:	00b70023          	sb	a1,0(a4)
     9a8:	8082                	ret
     9aa:	0ff5f593          	andi	a1,a1,255
     9ae:	00859693          	slli	a3,a1,0x8
     9b2:	8dd5                	or	a1,a1,a3
     9b4:	01059693          	slli	a3,a1,0x10
     9b8:	8dd5                	or	a1,a1,a3
     9ba:	b761                	j	942 <memset+0x10>
     9bc:	00279693          	slli	a3,a5,0x2
     9c0:	00000297          	auipc	t0,0x0
     9c4:	9696                	add	a3,a3,t0
     9c6:	8286                	mv	t0,ra
     9c8:	fa8680e7          	jalr	-88(a3)
     9cc:	8096                	mv	ra,t0
     9ce:	17c1                	addi	a5,a5,-16
     9d0:	8f1d                	sub	a4,a4,a5
     9d2:	963e                	add	a2,a2,a5
     9d4:	f8c374e3          	bgeu	t1,a2,95c <memset+0x2a>
     9d8:	b7a5                	j	940 <memset+0xe>

000009da <queue_init>:
queue_init():
C:\MRS_DATA\workspace\queue1\obj/../User/Main.c:37
uint8_t nowprt=0;uint8_t len0 = 0;
uint8_t tag=0;
Queue_t mainqueue;
void queue_init()
{
    mainqueue.head=(uint16_t)0;
     9da:	8f818793          	addi	a5,gp,-1800 # 200009e0 <mainqueue>
C:\MRS_DATA\workspace\queue1\obj/../User/Main.c:39
    mainqueue.tail=(uint16_t)0;
    mainqueue.bottom_point=(uint16_t)1000;
     9de:	3e800713          	li	a4,1000
C:\MRS_DATA\workspace\queue1\obj/../User/Main.c:37
    mainqueue.head=(uint16_t)0;
     9e2:	0007a023          	sw	zero,0(a5)
C:\MRS_DATA\workspace\queue1\obj/../User/Main.c:39
    mainqueue.bottom_point=(uint16_t)1000;
     9e6:	00e79223          	sh	a4,4(a5)
C:\MRS_DATA\workspace\queue1\obj/../User/Main.c:40
}
     9ea:	8082                	ret

000009ec <queue_push>:
queue_push():
C:\MRS_DATA\workspace\queue1\obj/../User/Main.c:41
int queue_push(Queue_t *queue,MAIN_QUEUE_ITEM *item) {
     9ec:	1141                	addi	sp,sp,-16
     9ee:	c422                	sw	s0,8(sp)
     9f0:	c226                	sw	s1,4(sp)
     9f2:	c606                	sw	ra,12(sp)
C:\MRS_DATA\workspace\queue1\obj/../User/Main.c:42
    if((queue->tail+item->len+2)> 1000)//超出缓存区
     9f4:	00255783          	lhu	a5,2(a0)
     9f8:	0005c603          	lbu	a2,0(a1)
     9fc:	3e600713          	li	a4,998
C:\MRS_DATA\workspace\queue1\obj/../User/Main.c:41
int queue_push(Queue_t *queue,MAIN_QUEUE_ITEM *item) {
     a00:	842a                	mv	s0,a0
C:\MRS_DATA\workspace\queue1\obj/../User/Main.c:42
    if((queue->tail+item->len+2)> 1000)//超出缓存区
     a02:	00c786b3          	add	a3,a5,a2
C:\MRS_DATA\workspace\queue1\obj/../User/Main.c:41
int queue_push(Queue_t *queue,MAIN_QUEUE_ITEM *item) {
     a06:	84ae                	mv	s1,a1
C:\MRS_DATA\workspace\queue1\obj/../User/Main.c:42
    if((queue->tail+item->len+2)> 1000)//超出缓存区
     a08:	00d75663          	bge	a4,a3,a14 <queue_push+0x28>
C:\MRS_DATA\workspace\queue1\obj/../User/Main.c:44
    {
        queue->bottom_point = queue->tail;//将缓存区底置为尾部
     a0c:	00f51223          	sh	a5,4(a0)
C:\MRS_DATA\workspace\queue1\obj/../User/Main.c:45
        queue->tail = 0;//尾指向0
     a10:	00051123          	sh	zero,2(a0)
C:\MRS_DATA\workspace\queue1\obj/../User/Main.c:47
    }
        memcpy(&queue->data[queue->tail], item, item->len+2);
     a14:	00245503          	lhu	a0,2(s0)
     a18:	85a6                	mv	a1,s1
     a1a:	0609                	addi	a2,a2,2
     a1c:	0519                	addi	a0,a0,6
     a1e:	9522                	add	a0,a0,s0
     a20:	774000ef          	jal	ra,1194 <memcpy>
C:\MRS_DATA\workspace\queue1\obj/../User/Main.c:49
        //UART3_SendString(&queue->data[queue->head],item->len+2 );
        queue->tail=queue->tail+item->len+2;
     a24:	0004c703          	lbu	a4,0(s1)
     a28:	00245783          	lhu	a5,2(s0)
C:\MRS_DATA\workspace\queue1\obj/../User/Main.c:51
    return 1;
}
     a2c:	40b2                	lw	ra,12(sp)
     a2e:	4492                	lw	s1,4(sp)
C:\MRS_DATA\workspace\queue1\obj/../User/Main.c:49
        queue->tail=queue->tail+item->len+2;
     a30:	97ba                	add	a5,a5,a4
     a32:	0789                	addi	a5,a5,2
     a34:	00f41123          	sh	a5,2(s0)
C:\MRS_DATA\workspace\queue1\obj/../User/Main.c:51
}
     a38:	4422                	lw	s0,8(sp)
     a3a:	4505                	li	a0,1
     a3c:	0141                	addi	sp,sp,16
     a3e:	8082                	ret

00000a40 <queue_pop>:
queue_pop():
C:\MRS_DATA\workspace\queue1\obj/../User/Main.c:53
int queue_pop(Queue_t *queue,MAIN_QUEUE_ITEM *item) {
    if(queue->head == queue->tail)return 0;//头指向尾，无数据
     a40:	00055783          	lhu	a5,0(a0)
     a44:	00255703          	lhu	a4,2(a0)
     a48:	04f70863          	beq	a4,a5,a98 <queue_pop+0x58>
C:\MRS_DATA\workspace\queue1\obj/../User/Main.c:54
    if(queue->head ==  queue->bottom_point)//头指向底，置0
     a4c:	00455703          	lhu	a4,4(a0)
C:\MRS_DATA\workspace\queue1\obj/../User/Main.c:52
int queue_pop(Queue_t *queue,MAIN_QUEUE_ITEM *item) {
     a50:	1141                	addi	sp,sp,-16
     a52:	c422                	sw	s0,8(sp)
     a54:	c606                	sw	ra,12(sp)
     a56:	842a                	mv	s0,a0
C:\MRS_DATA\workspace\queue1\obj/../User/Main.c:54
    if(queue->head ==  queue->bottom_point)//头指向底，置0
     a58:	00f71463          	bne	a4,a5,a60 <queue_pop+0x20>
C:\MRS_DATA\workspace\queue1\obj/../User/Main.c:56
    {
        queue->head = 0;
     a5c:	00051023          	sh	zero,0(a0)
C:\MRS_DATA\workspace\queue1\obj/../User/Main.c:58
    }
    memcpy(item,&queue->data[queue->head],queue->data[queue->head]+2);
     a60:	00045783          	lhu	a5,0(s0)
     a64:	852e                	mv	a0,a1
     a66:	00f40733          	add	a4,s0,a5
     a6a:	00670603          	lb	a2,6(a4)
     a6e:	0799                	addi	a5,a5,6
     a70:	00f405b3          	add	a1,s0,a5
     a74:	0609                	addi	a2,a2,2
     a76:	71e000ef          	jal	ra,1194 <memcpy>
C:\MRS_DATA\workspace\queue1\obj/../User/Main.c:60

    queue->head=queue->data[queue->head]+queue->head+2;
     a7a:	00045783          	lhu	a5,0(s0)
C:\MRS_DATA\workspace\queue1\obj/../User/Main.c:63

    return 1;
}
     a7e:	40b2                	lw	ra,12(sp)
C:\MRS_DATA\workspace\queue1\obj/../User/Main.c:62
    return 1;
     a80:	4505                	li	a0,1
C:\MRS_DATA\workspace\queue1\obj/../User/Main.c:60
    queue->head=queue->data[queue->head]+queue->head+2;
     a82:	00f40733          	add	a4,s0,a5
     a86:	00670703          	lb	a4,6(a4)
     a8a:	0789                	addi	a5,a5,2
     a8c:	97ba                	add	a5,a5,a4
     a8e:	00f41023          	sh	a5,0(s0)
C:\MRS_DATA\workspace\queue1\obj/../User/Main.c:63
}
     a92:	4422                	lw	s0,8(sp)
     a94:	0141                	addi	sp,sp,16
     a96:	8082                	ret
C:\MRS_DATA\workspace\queue1\obj/../User/Main.c:53
    if(queue->head == queue->tail)return 0;//头指向尾，无数据
     a98:	4501                	li	a0,0
C:\MRS_DATA\workspace\queue1\obj/../User/Main.c:63
}
     a9a:	8082                	ret

00000a9c <UART_init>:
UART_init():
C:\MRS_DATA\workspace\queue1\obj/../User/Main.c:95
    UART1_INTCfg(ENABLE, RB_IER_RECV_RDY | RB_IER_LINE_STAT);
    PFIC_EnableIRQ(UART1_IRQn);
}*/

void UART_init()
{
     a9c:	1141                	addi	sp,sp,-16
     a9e:	c422                	sw	s0,8(sp)
C:\MRS_DATA\workspace\queue1\obj/../User/Main.c:96
        GPIOA_SetBits(GPIO_Pin_5);
     aa0:	40001437          	lui	s0,0x40001
     aa4:	0a842783          	lw	a5,168(s0) # 400010a8 <_eusrstack+0x1fffa8a8>
C:\MRS_DATA\workspace\queue1\obj/../User/Main.c:95
{
     aa8:	c606                	sw	ra,12(sp)
C:\MRS_DATA\workspace\queue1\obj/../User/Main.c:97
        GPIOA_ModeCfg(GPIO_Pin_4, GPIO_ModeIN_PU);      // RXD-配置上拉输入
     aaa:	4585                	li	a1,1
C:\MRS_DATA\workspace\queue1\obj/../User/Main.c:96
        GPIOA_SetBits(GPIO_Pin_5);
     aac:	0207e793          	ori	a5,a5,32
     ab0:	0af42423          	sw	a5,168(s0)
C:\MRS_DATA\workspace\queue1\obj/../User/Main.c:97
        GPIOA_ModeCfg(GPIO_Pin_4, GPIO_ModeIN_PU);      // RXD-配置上拉输入
     ab4:	4541                	li	a0,16
     ab6:	2121                	jal	ebe <GPIOA_ModeCfg>
C:\MRS_DATA\workspace\queue1\obj/../User/Main.c:98
        GPIOA_ModeCfg(GPIO_Pin_5, GPIO_ModeOut_PP_5mA); // TXD-配置推挽输出，注意先让IO口输出高电平
     ab8:	458d                	li	a1,3
     aba:	02000513          	li	a0,32
     abe:	2101                	jal	ebe <GPIOA_ModeCfg>
C:\MRS_DATA\workspace\queue1\obj/../User/Main.c:99
        UART3_DefInit();
     ac0:	2531                	jal	10cc <UART3_DefInit>
C:\MRS_DATA\workspace\queue1\obj/../User/Main.c:100
        GPIOA_SetBits(GPIO_Pin_9);
     ac2:	0a842783          	lw	a5,168(s0)
C:\MRS_DATA\workspace\queue1\obj/../User/Main.c:101
        GPIOA_ModeCfg(GPIO_Pin_8, GPIO_ModeIN_PU);      // RXD-配置上拉输入
     ac6:	4585                	li	a1,1
     ac8:	10000513          	li	a0,256
C:\MRS_DATA\workspace\queue1\obj/../User/Main.c:100
        GPIOA_SetBits(GPIO_Pin_9);
     acc:	2007e793          	ori	a5,a5,512
     ad0:	0af42423          	sw	a5,168(s0)
C:\MRS_DATA\workspace\queue1\obj/../User/Main.c:101
        GPIOA_ModeCfg(GPIO_Pin_8, GPIO_ModeIN_PU);      // RXD-配置上拉输入
     ad4:	26ed                	jal	ebe <GPIOA_ModeCfg>
C:\MRS_DATA\workspace\queue1\obj/../User/Main.c:102
        GPIOA_ModeCfg(GPIO_Pin_9, GPIO_ModeOut_PP_5mA); // TXD-配置推挽输出，注意先让IO口输出高电平
     ad6:	458d                	li	a1,3
     ad8:	20000513          	li	a0,512
     adc:	26cd                	jal	ebe <GPIOA_ModeCfg>
C:\MRS_DATA\workspace\queue1\obj/../User/Main.c:103
        UART1_DefInit();
     ade:	29dd                	jal	fd4 <UART1_DefInit>
C:\MRS_DATA\workspace\queue1\obj/../User/Main.c:104
        UART1_ByteTrigCfg(0);
     ae0:	4501                	li	a0,0
     ae2:	2315                	jal	1006 <UART1_ByteTrigCfg>
C:\MRS_DATA\workspace\queue1\obj/../User/Main.c:105
        UART1_INTCfg(ENABLE, RB_IER_RECV_RDY);
     ae4:	4585                	li	a1,1
     ae6:	4505                	li	a0,1
     ae8:	2b25                	jal	1020 <UART1_INTCfg>
PFIC_EnableIRQ():
C:\MRS_DATA\workspace\queue1\RVMSIS/core_riscv.h:112
 *
 * @param   IRQn    - Interrupt Numbers
 */
__attribute__((always_inline)) RV_STATIC_INLINE void PFIC_EnableIRQ(IRQn_Type IRQn)
{
    PFIC->IENR[((uint32_t)(IRQn) >> 5)] = (1 << ((uint32_t)(IRQn)&0x1F));
     aea:	080007b7          	lui	a5,0x8000
     aee:	e000e437          	lui	s0,0xe000e
     af2:	10f42023          	sw	a5,256(s0) # e000e100 <_eusrstack+0xc0007900>
UART_init():
C:\MRS_DATA\workspace\queue1\obj/../User/Main.c:107
        PFIC_EnableIRQ(UART1_IRQn);
        UART3_ByteTrigCfg(0);
     af6:	4501                	li	a0,0
     af8:	2519                	jal	10fe <UART3_ByteTrigCfg>
C:\MRS_DATA\workspace\queue1\obj/../User/Main.c:108
        UART3_INTCfg(ENABLE, RB_IER_RECV_RDY);
     afa:	4585                	li	a1,1
     afc:	4505                	li	a0,1
     afe:	2d29                	jal	1118 <UART3_INTCfg>
PFIC_EnableIRQ():
C:\MRS_DATA\workspace\queue1\RVMSIS/core_riscv.h:112
     b00:	4791                	li	a5,4
     b02:	10f42223          	sw	a5,260(s0)
UART_init():
C:\MRS_DATA\workspace\queue1\obj/../User/Main.c:110
        PFIC_EnableIRQ(UART3_IRQn);
}
     b06:	40b2                	lw	ra,12(sp)
     b08:	4422                	lw	s0,8(sp)
     b0a:	0141                	addi	sp,sp,16
     b0c:	8082                	ret

00000b0e <get_AT_respone>:
get_AT_respone():
C:\MRS_DATA\workspace\queue1\obj/../User/Main.c:112
int get_AT_respone()
{
     b0e:	1141                	addi	sp,sp,-16
C:\MRS_DATA\workspace\queue1\obj/../User/Main.c:113
    UART3_SendString("AT_RESPON:",10);
     b10:	45a9                	li	a1,10
     b12:	00001517          	auipc	a0,0x1
     b16:	16650513          	addi	a0,a0,358 # 1c78 <_sbrk+0x20>
C:\MRS_DATA\workspace\queue1\obj/../User/Main.c:112
{
     b1a:	c606                	sw	ra,12(sp)
C:\MRS_DATA\workspace\queue1\obj/../User/Main.c:113
    UART3_SendString("AT_RESPON:",10);
     b1c:	251d                	jal	1142 <UART3_SendString>
C:\MRS_DATA\workspace\queue1\obj/../User/Main.c:114
    UART3_SendString(&recvmsg.data, recvmsg.len);
     b1e:	cea18513          	addi	a0,gp,-790 # 20000dd2 <recvmsg+0x2>
     b22:	ce81c583          	lbu	a1,-792(gp) # 20000dd0 <recvmsg>
     b26:	2d31                	jal	1142 <UART3_SendString>
C:\MRS_DATA\workspace\queue1\obj/../User/Main.c:116
    return 1;
}
     b28:	40b2                	lw	ra,12(sp)
     b2a:	4505                	li	a0,1
     b2c:	0141                	addi	sp,sp,16
     b2e:	8082                	ret

00000b30 <is_645>:
is_645():
C:\MRS_DATA\workspace\queue1\obj/../User/Main.c:119

int is_645(MAIN_QUEUE_ITEM recv)
{
     b30:	00054703          	lbu	a4,0(a0)
C:\MRS_DATA\workspace\queue1\obj/../User/Main.c:120
    if(recv.len > 10 && recv.data[0]==104 && recv.data[7]==104 && recv.data[recv.len-1]==22)return 1;
     b34:	47a9                	li	a5,10
     b36:	02e7f563          	bgeu	a5,a4,b60 <is_645+0x30>
C:\MRS_DATA\workspace\queue1\obj/../User/Main.c:120 (discriminator 1)
     b3a:	00254683          	lbu	a3,2(a0)
     b3e:	06800613          	li	a2,104
C:\MRS_DATA\workspace\queue1\obj/../User/Main.c:121 (discriminator 1)
    else return 0;
     b42:	4781                	li	a5,0
C:\MRS_DATA\workspace\queue1\obj/../User/Main.c:120 (discriminator 1)
    if(recv.len > 10 && recv.data[0]==104 && recv.data[7]==104 && recv.data[recv.len-1]==22)return 1;
     b44:	00c69c63          	bne	a3,a2,b5c <is_645+0x2c>
C:\MRS_DATA\workspace\queue1\obj/../User/Main.c:120 (discriminator 2)
     b48:	00954603          	lbu	a2,9(a0)
     b4c:	00d61863          	bne	a2,a3,b5c <is_645+0x2c>
C:\MRS_DATA\workspace\queue1\obj/../User/Main.c:120 (discriminator 3)
     b50:	953a                	add	a0,a0,a4
     b52:	00154783          	lbu	a5,1(a0)
     b56:	17a9                	addi	a5,a5,-22
     b58:	0017b793          	seqz	a5,a5
C:\MRS_DATA\workspace\queue1\obj/../User/Main.c:122
}
     b5c:	853e                	mv	a0,a5
     b5e:	8082                	ret
C:\MRS_DATA\workspace\queue1\obj/../User/Main.c:121
    else return 0;
     b60:	4781                	li	a5,0
     b62:	bfed                	j	b5c <is_645+0x2c>

00000b64 <main>:
main():
C:\MRS_DATA\workspace\queue1\obj/../User/Main.c:131
    if(recv.data[0]=='A' && recv.data[1]=='T' && recv.data[2]=='+')return 1;
    else return 0;
}

int main()
{
     b64:	7175                	addi	sp,sp,-144
C:\MRS_DATA\workspace\queue1\obj/../User/Main.c:132
    SetSysClock(CLK_SOURCE_PLL_60MHz);
     b66:	04800513          	li	a0,72
C:\MRS_DATA\workspace\queue1\obj/../User/Main.c:131
{
     b6a:	c706                	sw	ra,140(sp)
     b6c:	c522                	sw	s0,136(sp)
     b6e:	c326                	sw	s1,132(sp)
     b70:	c14a                	sw	s2,128(sp)
     b72:	dece                	sw	s3,124(sp)
     b74:	dcd2                	sw	s4,120(sp)
     b76:	dad6                	sw	s5,116(sp)
C:\MRS_DATA\workspace\queue1\obj/../User/Main.c:132
    SetSysClock(CLK_SOURCE_PLL_60MHz);
     b78:	1ffff097          	auipc	ra,0x1ffff
     b7c:	51a080e7          	jalr	1306(ra) # 20000092 <SetSysClock>
C:\MRS_DATA\workspace\queue1\obj/../User/Main.c:133
    UART_init();
     b80:	3f31                	jal	a9c <UART_init>
C:\MRS_DATA\workspace\queue1\obj/../User/Main.c:134
    UART1_SendString("ATE0\r\n",6);
     b82:	4599                	li	a1,6
     b84:	00001517          	auipc	a0,0x1
     b88:	10050513          	addi	a0,a0,256 # 1c84 <_sbrk+0x2c>
     b8c:	297d                	jal	104a <UART1_SendString>
C:\MRS_DATA\workspace\queue1\obj/../User/Main.c:142
    //PFIC_EnableIRQ(TMR0_IRQn);
    //PFIC_DisableIRQ(TMR0_IRQn);
    queue_init();
    while(1)
    {
        if(queue_pop(&mainqueue, &recvmsg)) //UART3_SendString("nodata\r\n",8);
     b8e:	ce818413          	addi	s0,gp,-792 # 20000dd0 <recvmsg>
C:\MRS_DATA\workspace\queue1\obj/../User/Main.c:139
    queue_init();
     b92:	35a1                	jal	9da <queue_init>
C:\MRS_DATA\workspace\queue1\obj/../User/Main.c:142
        if(queue_pop(&mainqueue, &recvmsg)) //UART3_SendString("nodata\r\n",8);
     b94:	8f818913          	addi	s2,gp,-1800 # 200009e0 <mainqueue>
C:\MRS_DATA\workspace\queue1\obj/../User/Main.c:144
        {
            if(recvmsg.type == modem_msg)//来自modem的消息
     b98:	4989                	li	s3,2
C:\MRS_DATA\workspace\queue1\obj/../User/Main.c:167
                    //if(is_)
                    UART3_SendString("modem_respone_msg:\r\n",19);
                    UART3_SendString(&recvmsg.data,recvmsg.len);
                }
            }
            else if(recvmsg.type == Uart3_msg)//来自串口调试消息
     b9a:	4a05                	li	s4,1
C:\MRS_DATA\workspace\queue1\obj/../User/Main.c:187
                {
                    UART3_SendString("other_msg\r\n",11);
                    UART3_SendString(&recvmsg.data,recvmsg.len);
                }
            }
            else if(recvmsg.type == uart0_msg)//来自电表的回复
     b9c:	4a8d                	li	s5,3
C:\MRS_DATA\workspace\queue1\obj/../User/Main.c:198
                    UART1_SendString(from_meter, strlen(from_meter));
                    UART1_SendString(&recvmsg.data, recvmsg.len);
                    UART3_SendString("C->M->S",7);
                }
            }
            else UART3_SendString("NO645AT\r\n",9);
     b9e:	00001497          	auipc	s1,0x1
     ba2:	18648493          	addi	s1,s1,390 # 1d24 <_sbrk+0xcc>
C:\MRS_DATA\workspace\queue1\obj/../User/Main.c:142
        if(queue_pop(&mainqueue, &recvmsg)) //UART3_SendString("nodata\r\n",8);
     ba6:	85a2                	mv	a1,s0
     ba8:	854a                	mv	a0,s2
     baa:	3d59                	jal	a40 <queue_pop>
     bac:	dd6d                	beqz	a0,ba6 <main+0x42>
C:\MRS_DATA\workspace\queue1\obj/../User/Main.c:144
            if(recvmsg.type == modem_msg)//来自modem的消息
     bae:	ce91c783          	lbu	a5,-791(gp) # 20000dd1 <recvmsg+0x1>
     bb2:	09379c63          	bne	a5,s3,c4a <main+0xe6>
C:\MRS_DATA\workspace\queue1\obj/../User/Main.c:146
                get_AT_respone();
     bb6:	3fa1                	jal	b0e <get_AT_respone>
C:\MRS_DATA\workspace\queue1\obj/../User/Main.c:147
                if (is_645(recvmsg))//是645，则来自服务器，直接送至电表
     bb8:	03400613          	li	a2,52
     bbc:	85a2                	mv	a1,s0
     bbe:	850a                	mv	a0,sp
     bc0:	2bd1                	jal	1194 <memcpy>
     bc2:	850a                	mv	a0,sp
     bc4:	37b5                	jal	b30 <is_645>
     bc6:	c115                	beqz	a0,bea <main+0x86>
C:\MRS_DATA\workspace\queue1\obj/../User/Main.c:149
                    UART3_SendString("S->C:",5);
     bc8:	4595                	li	a1,5
     bca:	00001517          	auipc	a0,0x1
     bce:	0c250513          	addi	a0,a0,194 # 1c8c <_sbrk+0x34>
     bd2:	2b85                	jal	1142 <UART3_SendString>
C:\MRS_DATA\workspace\queue1\obj/../User/Main.c:150
                    UART3_SendString("is645server\r\n",13);
     bd4:	45b5                	li	a1,13
     bd6:	00001517          	auipc	a0,0x1
     bda:	0be50513          	addi	a0,a0,190 # 1c94 <_sbrk+0x3c>
C:\MRS_DATA\workspace\queue1\obj/../User/Main.c:183
                    UART3_SendString("other_msg\r\n",11);
     bde:	2395                	jal	1142 <UART3_SendString>
C:\MRS_DATA\workspace\queue1\obj/../User/Main.c:184
                    UART3_SendString(&recvmsg.data,recvmsg.len);
     be0:	ce81c583          	lbu	a1,-792(gp) # 20000dd0 <recvmsg>
     be4:	cea18513          	addi	a0,gp,-790 # 20000dd2 <recvmsg+0x2>
     be8:	a071                	j	c74 <main+0x110>
is_AT():
C:\MRS_DATA\workspace\queue1\obj/../User/Main.c:126
    if(recv.data[0]=='A' && recv.data[1]=='T' && recv.data[2]=='+')return 1;
     bea:	cea1c703          	lbu	a4,-790(gp) # 20000dd2 <recvmsg+0x2>
     bee:	04100793          	li	a5,65
     bf2:	04f71663          	bne	a4,a5,c3e <main+0xda>
     bf6:	ceb1c703          	lbu	a4,-789(gp) # 20000dd3 <recvmsg+0x3>
     bfa:	05400793          	li	a5,84
     bfe:	04f71063          	bne	a4,a5,c3e <main+0xda>
     c02:	cec1c703          	lbu	a4,-788(gp) # 20000dd4 <recvmsg+0x4>
     c06:	02b00793          	li	a5,43
     c0a:	02f71a63          	bne	a4,a5,c3e <main+0xda>
main():
C:\MRS_DATA\workspace\queue1\obj/../User/Main.c:155
                    UART3_SendString("S->C:",5);
     c0e:	4595                	li	a1,5
     c10:	00001517          	auipc	a0,0x1
     c14:	07c50513          	addi	a0,a0,124 # 1c8c <_sbrk+0x34>
     c18:	232d                	jal	1142 <UART3_SendString>
C:\MRS_DATA\workspace\queue1\obj/../User/Main.c:156
                    UART3_SendString("isATserver\r\n",12);
     c1a:	45b1                	li	a1,12
     c1c:	00001517          	auipc	a0,0x1
     c20:	08850513          	addi	a0,a0,136 # 1ca4 <_sbrk+0x4c>
     c24:	2b39                	jal	1142 <UART3_SendString>
C:\MRS_DATA\workspace\queue1\obj/../User/Main.c:157
                    UART3_SendString("C->M:",4);
     c26:	4591                	li	a1,4
C:\MRS_DATA\workspace\queue1\obj/../User/Main.c:178
                    UART3_SendString("C->M:",5);
     c28:	00001517          	auipc	a0,0x1
     c2c:	08c50513          	addi	a0,a0,140 # 1cb4 <_sbrk+0x5c>
     c30:	2b09                	jal	1142 <UART3_SendString>
C:\MRS_DATA\workspace\queue1\obj/../User/Main.c:179
                    UART1_SendString(&recvmsg.data, recvmsg.len);//来自串口的AT发到modem
     c32:	ce81c583          	lbu	a1,-792(gp) # 20000dd0 <recvmsg>
     c36:	cea18513          	addi	a0,gp,-790 # 20000dd2 <recvmsg+0x2>
     c3a:	2901                	jal	104a <UART1_SendString>
     c3c:	b7ad                	j	ba6 <main+0x42>
C:\MRS_DATA\workspace\queue1\obj/../User/Main.c:163
                    UART3_SendString("modem_respone_msg:\r\n",19);
     c3e:	45cd                	li	a1,19
     c40:	00001517          	auipc	a0,0x1
     c44:	07c50513          	addi	a0,a0,124 # 1cbc <_sbrk+0x64>
     c48:	bf59                	j	bde <main+0x7a>
C:\MRS_DATA\workspace\queue1\obj/../User/Main.c:167
            else if(recvmsg.type == Uart3_msg)//来自串口调试消息
     c4a:	07479d63          	bne	a5,s4,cc4 <main+0x160>
C:\MRS_DATA\workspace\queue1\obj/../User/Main.c:169
                if (is_645(recvmsg))//是645，来自串口，送至电表
     c4e:	03400613          	li	a2,52
     c52:	85a2                	mv	a1,s0
     c54:	850a                	mv	a0,sp
     c56:	2b3d                	jal	1194 <memcpy>
     c58:	850a                	mv	a0,sp
     c5a:	3dd9                	jal	b30 <is_645>
     c5c:	cd11                	beqz	a0,c78 <main+0x114>
C:\MRS_DATA\workspace\queue1\obj/../User/Main.c:171
                    UART3_SendString("C->V:",5);
     c5e:	4595                	li	a1,5
     c60:	00001517          	auipc	a0,0x1
     c64:	07450513          	addi	a0,a0,116 # 1cd4 <_sbrk+0x7c>
     c68:	29e9                	jal	1142 <UART3_SendString>
C:\MRS_DATA\workspace\queue1\obj/../User/Main.c:172
                    UART3_SendString("is645Serial\r\n",13);
     c6a:	45b5                	li	a1,13
     c6c:	00001517          	auipc	a0,0x1
     c70:	07050513          	addi	a0,a0,112 # 1cdc <_sbrk+0x84>
C:\MRS_DATA\workspace\queue1\obj/../User/Main.c:198
            else UART3_SendString("NO645AT\r\n",9);
     c74:	21f9                	jal	1142 <UART3_SendString>
     c76:	bf05                	j	ba6 <main+0x42>
is_AT():
C:\MRS_DATA\workspace\queue1\obj/../User/Main.c:126
    if(recv.data[0]=='A' && recv.data[1]=='T' && recv.data[2]=='+')return 1;
     c78:	cea1c703          	lbu	a4,-790(gp) # 20000dd2 <recvmsg+0x2>
     c7c:	04100793          	li	a5,65
     c80:	00f71e63          	bne	a4,a5,c9c <main+0x138>
     c84:	ceb1c703          	lbu	a4,-789(gp) # 20000dd3 <recvmsg+0x3>
     c88:	05400793          	li	a5,84
     c8c:	00f71863          	bne	a4,a5,c9c <main+0x138>
     c90:	cec1c703          	lbu	a4,-788(gp) # 20000dd4 <recvmsg+0x4>
     c94:	02b00793          	li	a5,43
     c98:	00f70863          	beq	a4,a5,ca8 <main+0x144>
main():
C:\MRS_DATA\workspace\queue1\obj/../User/Main.c:183
                    UART3_SendString("other_msg\r\n",11);
     c9c:	45ad                	li	a1,11
     c9e:	00001517          	auipc	a0,0x1
     ca2:	04e50513          	addi	a0,a0,78 # 1cec <_sbrk+0x94>
     ca6:	bf25                	j	bde <main+0x7a>
C:\MRS_DATA\workspace\queue1\obj/../User/Main.c:176
                    UART3_SendString("S->C:",5);
     ca8:	4595                	li	a1,5
     caa:	00001517          	auipc	a0,0x1
     cae:	fe250513          	addi	a0,a0,-30 # 1c8c <_sbrk+0x34>
     cb2:	2941                	jal	1142 <UART3_SendString>
C:\MRS_DATA\workspace\queue1\obj/../User/Main.c:177
                    UART3_SendString("isATSerial\r\n",12);
     cb4:	45b1                	li	a1,12
     cb6:	00001517          	auipc	a0,0x1
     cba:	04250513          	addi	a0,a0,66 # 1cf8 <_sbrk+0xa0>
     cbe:	2151                	jal	1142 <UART3_SendString>
C:\MRS_DATA\workspace\queue1\obj/../User/Main.c:178
                    UART3_SendString("C->M:",5);
     cc0:	4595                	li	a1,5
     cc2:	b79d                	j	c28 <main+0xc4>
C:\MRS_DATA\workspace\queue1\obj/../User/Main.c:187
            else if(recvmsg.type == uart0_msg)//来自电表的回复
     cc4:	05579763          	bne	a5,s5,d12 <main+0x1ae>
C:\MRS_DATA\workspace\queue1\obj/../User/Main.c:189
                if (is_645(recvmsg))//是645，来自电表，送至服务器
     cc8:	03400613          	li	a2,52
     ccc:	85a2                	mv	a1,s0
     cce:	850a                	mv	a0,sp
     cd0:	21d1                	jal	1194 <memcpy>
     cd2:	850a                	mv	a0,sp
     cd4:	3db1                	jal	b30 <is_645>
     cd6:	ec0508e3          	beqz	a0,ba6 <main+0x42>
C:\MRS_DATA\workspace\queue1\obj/../User/Main.c:192
                    snprintf(from_meter,sizeof(from_meter),"AT+QISEND=0,%d\r\n",recvmsg.len);//待确认socket场景号，新增函数
     cda:	ce81c683          	lbu	a3,-792(gp) # 20000dd0 <recvmsg>
     cde:	00001617          	auipc	a2,0x1
     ce2:	02a60613          	addi	a2,a2,42 # 1d08 <_sbrk+0xb0>
     ce6:	02800593          	li	a1,40
     cea:	00a8                	addi	a0,sp,72
     cec:	2bb9                	jal	124a <sniprintf>
C:\MRS_DATA\workspace\queue1\obj/../User/Main.c:193
                    UART1_SendString(from_meter, strlen(from_meter));
     cee:	00a8                	addi	a0,sp,72
     cf0:	23f1                	jal	12bc <strlen>
     cf2:	01051593          	slli	a1,a0,0x10
     cf6:	81c1                	srli	a1,a1,0x10
     cf8:	00a8                	addi	a0,sp,72
     cfa:	2e81                	jal	104a <UART1_SendString>
C:\MRS_DATA\workspace\queue1\obj/../User/Main.c:194
                    UART1_SendString(&recvmsg.data, recvmsg.len);
     cfc:	ce81c583          	lbu	a1,-792(gp) # 20000dd0 <recvmsg>
     d00:	cea18513          	addi	a0,gp,-790 # 20000dd2 <recvmsg+0x2>
     d04:	2699                	jal	104a <UART1_SendString>
C:\MRS_DATA\workspace\queue1\obj/../User/Main.c:195
                    UART3_SendString("C->M->S",7);
     d06:	459d                	li	a1,7
     d08:	00001517          	auipc	a0,0x1
     d0c:	01450513          	addi	a0,a0,20 # 1d1c <_sbrk+0xc4>
     d10:	b795                	j	c74 <main+0x110>
C:\MRS_DATA\workspace\queue1\obj/../User/Main.c:198
            else UART3_SendString("NO645AT\r\n",9);
     d12:	45a5                	li	a1,9
     d14:	8526                	mv	a0,s1
     d16:	bfb9                	j	c74 <main+0x110>

00000d18 <TMR0_IRQHandler>:
TMR0_IRQHandler():
C:\MRS_DATA\workspace\queue1\obj/../User/Main.c:206
    }
}

void TMR0_IRQHandler(void)
{
    if(TMR0_GetITFlag(TMR0_3_IT_CYC_END))
     d18:	400027b7          	lui	a5,0x40002
     d1c:	0067c783          	lbu	a5,6(a5) # 40002006 <_eusrstack+0x1fffb806>
     d20:	8b85                	andi	a5,a5,1
     d22:	cf91                	beqz	a5,d3e <TMR0_IRQHandler+0x26>
C:\MRS_DATA\workspace\queue1\obj/../User/Main.c:208
    {
        if(time_tick>0)time_tick--;
     d24:	80818793          	addi	a5,gp,-2040 # 200008f0 <_edata>
     d28:	439c                	lw	a5,0(a5)
     d2a:	00f05563          	blez	a5,d34 <TMR0_IRQHandler+0x1c>
C:\MRS_DATA\workspace\queue1\obj/../User/Main.c:208 (discriminator 1)
     d2e:	17fd                	addi	a5,a5,-1
     d30:	80f1a423          	sw	a5,-2040(gp) # 200008f0 <_edata>
C:\MRS_DATA\workspace\queue1\obj/../User/Main.c:209
        TMR0_ClearITFlag(TMR0_3_IT_CYC_END);    // 清除中断标志
     d34:	400027b7          	lui	a5,0x40002
     d38:	4705                	li	a4,1
     d3a:	00e78323          	sb	a4,6(a5) # 40002006 <_eusrstack+0x1fffb806>
C:\MRS_DATA\workspace\queue1\obj/../User/Main.c:211
    }
}
     d3e:	8082                	ret

00000d40 <UART3_IRQHandler>:
UART3_IRQHandler():
C:\MRS_DATA\workspace\queue1\obj/../User/Main.c:220
__INTERRUPT
void UART3_IRQHandler(void)
{
    volatile uint8_t i;
    uint8_t nowprt=0;
    switch(UART3_GetITFlag())
     d40:	40004737          	lui	a4,0x40004
     d44:	c0474783          	lbu	a5,-1020(a4) # 40003c04 <_eusrstack+0x1fffd404>
     d48:	4699                	li	a3,6
     d4a:	8bbd                	andi	a5,a5,15
     d4c:	02d78a63          	beq	a5,a3,d80 <UART3_IRQHandler+0x40>
C:\MRS_DATA\workspace\queue1\obj/../User/Main.c:217
{
     d50:	7179                	addi	sp,sp,-48
     d52:	d622                	sw	s0,44(sp)
     d54:	d426                	sw	s1,40(sp)
     d56:	d24a                	sw	s2,36(sp)
     d58:	d04e                	sw	s3,32(sp)
     d5a:	ce52                	sw	s4,28(sp)
     d5c:	cc56                	sw	s5,24(sp)
     d5e:	4731                	li	a4,12
     d60:	00e78563          	beq	a5,a4,d6a <UART3_IRQHandler+0x2a>
     d64:	4711                	li	a4,4
     d66:	08e79363          	bne	a5,a4,dec <UART3_IRQHandler+0xac>
C:\MRS_DATA\workspace\queue1\obj/../User/Main.c:220
    switch(UART3_GetITFlag())
     d6a:	3e800493          	li	s1,1000
C:\MRS_DATA\workspace\queue1\obj/../User/Main.c:219
    uint8_t nowprt=0;
     d6e:	4401                	li	s0,0
C:\MRS_DATA\workspace\queue1\obj/../User/Main.c:231
        }

        case UART_II_RECV_RDY: // 数据达到设置触发点
        case UART_II_RECV_TOUT: // 接收超时，暂时一帧数据接收完成
            {int j=1000;
                while(j-- || (R8_UART3_LSR == RB_LSR_DATA_RDY))
     d70:	40004a37          	lui	s4,0x40004
     d74:	4905                	li	s2,1
C:\MRS_DATA\workspace\queue1\obj/../User/Main.c:233
                    {
                        i=UART3_RecvString(Rx);
     d76:	81c18993          	addi	s3,gp,-2020 # 20000904 <Rx>
C:\MRS_DATA\workspace\queue1\obj/../User/Main.c:234
                        memcpy(RxBuff+nowprt,Rx,i);
     d7a:	83018a93          	addi	s5,gp,-2000 # 20000918 <RxBuff>
     d7e:	a82d                	j	db8 <UART3_IRQHandler+0x78>
C:\MRS_DATA\workspace\queue1\obj/../User/Main.c:224
            UART3_GetLinSTA();
     d80:	c0574783          	lbu	a5,-1019(a4)
C:\MRS_DATA\workspace\queue1\obj/../User/Main.c:225
            break;
     d84:	30200073          	mret
C:\MRS_DATA\workspace\queue1\obj/../User/Main.c:233
                        i=UART3_RecvString(Rx);
     d88:	854e                	mv	a0,s3
     d8a:	26c5                	jal	116a <UART3_RecvString>
     d8c:	0ff57513          	andi	a0,a0,255
     d90:	00a107a3          	sb	a0,15(sp)
C:\MRS_DATA\workspace\queue1\obj/../User/Main.c:234
                        memcpy(RxBuff+nowprt,Rx,i);
     d94:	00f14603          	lbu	a2,15(sp)
     d98:	008a8533          	add	a0,s5,s0
     d9c:	85ce                	mv	a1,s3
     d9e:	2edd                	jal	1194 <memcpy>
C:\MRS_DATA\workspace\queue1\obj/../User/Main.c:235
                        nowprt+=i;
     da0:	00f14783          	lbu	a5,15(sp)
     da4:	14fd                	addi	s1,s1,-1
     da6:	943e                	add	s0,s0,a5
     da8:	0ff47413          	andi	s0,s0,255
C:\MRS_DATA\workspace\queue1\obj/../User/Main.c:236
                        memset(Rx,0,10);
     dac:	8001ae23          	sw	zero,-2020(gp) # 20000904 <Rx>
     db0:	8201a023          	sw	zero,-2016(gp) # 20000908 <Rx+0x4>
     db4:	82019223          	sh	zero,-2012(gp) # 2000090c <Rx+0x8>
C:\MRS_DATA\workspace\queue1\obj/../User/Main.c:231
                while(j-- || (R8_UART3_LSR == RB_LSR_DATA_RDY))
     db8:	f8e1                	bnez	s1,d88 <UART3_IRQHandler+0x48>
C:\MRS_DATA\workspace\queue1\obj/../User/Main.c:231 (discriminator 1)
     dba:	c05a4783          	lbu	a5,-1019(s4) # 40003c05 <_eusrstack+0x1fffd405>
     dbe:	fcf905e3          	beq	s2,a5,d88 <UART3_IRQHandler+0x48>
C:\MRS_DATA\workspace\queue1\obj/../User/Main.c:240
                    }
                uartmsg.len=nowprt;
                uartmsg.type=Uart3_msg;
                memcpy(uartmsg.data,RxBuff,nowprt);
     dc2:	8622                	mv	a2,s0
     dc4:	83018593          	addi	a1,gp,-2000 # 20000918 <RxBuff>
     dc8:	d1e18513          	addi	a0,gp,-738 # 20000e06 <uartmsg+0x2>
C:\MRS_DATA\workspace\queue1\obj/../User/Main.c:238
                uartmsg.len=nowprt;
     dcc:	d0818e23          	sb	s0,-740(gp) # 20000e04 <uartmsg>
C:\MRS_DATA\workspace\queue1\obj/../User/Main.c:239
                uartmsg.type=Uart3_msg;
     dd0:	d1218ea3          	sb	s2,-739(gp) # 20000e05 <uartmsg+0x1>
C:\MRS_DATA\workspace\queue1\obj/../User/Main.c:240
                memcpy(uartmsg.data,RxBuff,nowprt);
     dd4:	26c1                	jal	1194 <memcpy>
C:\MRS_DATA\workspace\queue1\obj/../User/Main.c:241
                queue_push(&mainqueue, &uartmsg);
     dd6:	d1c18593          	addi	a1,gp,-740 # 20000e04 <uartmsg>
     dda:	8f818513          	addi	a0,gp,-1800 # 200009e0 <mainqueue>
     dde:	3139                	jal	9ec <queue_push>
C:\MRS_DATA\workspace\queue1\obj/../User/Main.c:244
                //mainqueue.count++;
                //UART3_SendString(&mainqueue.tail,1);
                memset(RxBuff,0,200);
     de0:	0c800613          	li	a2,200
     de4:	4581                	li	a1,0
     de6:	83018513          	addi	a0,gp,-2000 # 20000918 <RxBuff>
     dea:	36a1                	jal	932 <memset>
C:\MRS_DATA\workspace\queue1\obj/../User/Main.c:257
            break;

        default:
            break;
    }
}
     dec:	5432                	lw	s0,44(sp)
     dee:	54a2                	lw	s1,40(sp)
     df0:	5912                	lw	s2,36(sp)
     df2:	5982                	lw	s3,32(sp)
     df4:	4a72                	lw	s4,28(sp)
     df6:	4ae2                	lw	s5,24(sp)
     df8:	6145                	addi	sp,sp,48
     dfa:	30200073          	mret

00000dfe <UART1_IRQHandler>:
UART1_IRQHandler():
C:\MRS_DATA\workspace\queue1\obj/../User/Main.c:266
__INTERRUPT
void UART1_IRQHandler(void)
{
    volatile uint8_t i;
    uint8_t nowprt=0;
    switch(UART1_GetITFlag())
     dfe:	40003737          	lui	a4,0x40003
     e02:	40474783          	lbu	a5,1028(a4) # 40003404 <_eusrstack+0x1fffcc04>
     e06:	4699                	li	a3,6
     e08:	8bbd                	andi	a5,a5,15
     e0a:	02d78a63          	beq	a5,a3,e3e <UART1_IRQHandler+0x40>
C:\MRS_DATA\workspace\queue1\obj/../User/Main.c:263
{
     e0e:	7179                	addi	sp,sp,-48
     e10:	d622                	sw	s0,44(sp)
     e12:	d426                	sw	s1,40(sp)
     e14:	d24a                	sw	s2,36(sp)
     e16:	d04e                	sw	s3,32(sp)
     e18:	ce52                	sw	s4,28(sp)
     e1a:	cc56                	sw	s5,24(sp)
     e1c:	4731                	li	a4,12
     e1e:	00e78563          	beq	a5,a4,e28 <UART1_IRQHandler+0x2a>
     e22:	4711                	li	a4,4
     e24:	08e79463          	bne	a5,a4,eac <UART1_IRQHandler+0xae>
C:\MRS_DATA\workspace\queue1\obj/../User/Main.c:266
    switch(UART1_GetITFlag())
     e28:	3e800493          	li	s1,1000
C:\MRS_DATA\workspace\queue1\obj/../User/Main.c:265
    uint8_t nowprt=0;
     e2c:	4401                	li	s0,0
C:\MRS_DATA\workspace\queue1\obj/../User/Main.c:277
        }

        case UART_II_RECV_RDY: // 数据达到设置触发点
        case UART_II_RECV_TOUT: // 接收超时，暂时一帧数据接收完成
            {int j=1000;
                while(j-- || (R8_UART1_LSR == RB_LSR_DATA_RDY))
     e2e:	40003a37          	lui	s4,0x40003
     e32:	4985                	li	s3,1
C:\MRS_DATA\workspace\queue1\obj/../User/Main.c:279
                    {
                        i=UART1_RecvString(Rx);
     e34:	81c18913          	addi	s2,gp,-2020 # 20000904 <Rx>
C:\MRS_DATA\workspace\queue1\obj/../User/Main.c:280
                        memcpy(RxBuff+nowprt,Rx,i);
     e38:	83018a93          	addi	s5,gp,-2000 # 20000918 <RxBuff>
     e3c:	a82d                	j	e76 <UART1_IRQHandler+0x78>
C:\MRS_DATA\workspace\queue1\obj/../User/Main.c:270
            UART1_GetLinSTA();
     e3e:	40574783          	lbu	a5,1029(a4)
C:\MRS_DATA\workspace\queue1\obj/../User/Main.c:271
            break;
     e42:	30200073          	mret
C:\MRS_DATA\workspace\queue1\obj/../User/Main.c:279
                        i=UART1_RecvString(Rx);
     e46:	854a                	mv	a0,s2
     e48:	242d                	jal	1072 <UART1_RecvString>
     e4a:	0ff57513          	andi	a0,a0,255
     e4e:	00a107a3          	sb	a0,15(sp)
C:\MRS_DATA\workspace\queue1\obj/../User/Main.c:280
                        memcpy(RxBuff+nowprt,Rx,i);
     e52:	00f14603          	lbu	a2,15(sp)
     e56:	008a8533          	add	a0,s5,s0
     e5a:	85ca                	mv	a1,s2
     e5c:	2e25                	jal	1194 <memcpy>
C:\MRS_DATA\workspace\queue1\obj/../User/Main.c:281
                        nowprt+=i;
     e5e:	00f14783          	lbu	a5,15(sp)
     e62:	14fd                	addi	s1,s1,-1
     e64:	943e                	add	s0,s0,a5
     e66:	0ff47413          	andi	s0,s0,255
C:\MRS_DATA\workspace\queue1\obj/../User/Main.c:282
                        memset(Rx,0,10);
     e6a:	8001ae23          	sw	zero,-2020(gp) # 20000904 <Rx>
     e6e:	8201a023          	sw	zero,-2016(gp) # 20000908 <Rx+0x4>
     e72:	82019223          	sh	zero,-2012(gp) # 2000090c <Rx+0x8>
C:\MRS_DATA\workspace\queue1\obj/../User/Main.c:277
                while(j-- || (R8_UART1_LSR == RB_LSR_DATA_RDY))
     e76:	f8e1                	bnez	s1,e46 <UART1_IRQHandler+0x48>
C:\MRS_DATA\workspace\queue1\obj/../User/Main.c:277 (discriminator 1)
     e78:	405a4783          	lbu	a5,1029(s4) # 40003405 <_eusrstack+0x1fffcc05>
     e7c:	fcf985e3          	beq	s3,a5,e46 <UART1_IRQHandler+0x48>
C:\MRS_DATA\workspace\queue1\obj/../User/Main.c:284
                    }
                uartmsg.len=nowprt;
     e80:	d0818e23          	sb	s0,-740(gp) # 20000e04 <uartmsg>
C:\MRS_DATA\workspace\queue1\obj/../User/Main.c:285
                uartmsg.type=modem_msg;
     e84:	4789                	li	a5,2
C:\MRS_DATA\workspace\queue1\obj/../User/Main.c:286
                memcpy(uartmsg.data,RxBuff,nowprt);
     e86:	8622                	mv	a2,s0
     e88:	83018593          	addi	a1,gp,-2000 # 20000918 <RxBuff>
     e8c:	d1e18513          	addi	a0,gp,-738 # 20000e06 <uartmsg+0x2>
C:\MRS_DATA\workspace\queue1\obj/../User/Main.c:285
                uartmsg.type=modem_msg;
     e90:	d0f18ea3          	sb	a5,-739(gp) # 20000e05 <uartmsg+0x1>
C:\MRS_DATA\workspace\queue1\obj/../User/Main.c:286
                memcpy(uartmsg.data,RxBuff,nowprt);
     e94:	2601                	jal	1194 <memcpy>
C:\MRS_DATA\workspace\queue1\obj/../User/Main.c:287
                queue_push(&mainqueue, &uartmsg);
     e96:	d1c18593          	addi	a1,gp,-740 # 20000e04 <uartmsg>
     e9a:	8f818513          	addi	a0,gp,-1800 # 200009e0 <mainqueue>
     e9e:	36b9                	jal	9ec <queue_push>
C:\MRS_DATA\workspace\queue1\obj/../User/Main.c:290
                //mainqueue.count++;
                //UART3_SendString(&mainqueue.tail,1);
                memset(RxBuff,0,200);
     ea0:	0c800613          	li	a2,200
     ea4:	4581                	li	a1,0
     ea6:	83018513          	addi	a0,gp,-2000 # 20000918 <RxBuff>
     eaa:	3461                	jal	932 <memset>
C:\MRS_DATA\workspace\queue1\obj/../User/Main.c:304

        default:
            break;
    }

}
     eac:	5432                	lw	s0,44(sp)
     eae:	54a2                	lw	s1,40(sp)
     eb0:	5912                	lw	s2,36(sp)
     eb2:	5982                	lw	s3,32(sp)
     eb4:	4a72                	lw	s4,28(sp)
     eb6:	4ae2                	lw	s5,24(sp)
     eb8:	6145                	addi	sp,sp,48
     eba:	30200073          	mret

00000ebe <GPIOA_ModeCfg>:
GPIOA_ModeCfg():
C:\MRS_DATA\workspace\queue1\obj/../StdPeriphDriver/CH59x_gpio.c:27
 *
 * @return  none
 */
void GPIOA_ModeCfg(uint32_t pin, GPIOModeTypeDef mode)
{
    switch(mode)
     ebe:	4791                	li	a5,4
     ec0:	02b7ee63          	bltu	a5,a1,efc <GPIOA_ModeCfg+0x3e>
     ec4:	00001717          	auipc	a4,0x1
     ec8:	e6c70713          	addi	a4,a4,-404 # 1d30 <_sbrk+0xd8>
     ecc:	058a                	slli	a1,a1,0x2
     ece:	95ba                	add	a1,a1,a4
     ed0:	419c                	lw	a5,0(a1)
     ed2:	97ba                	add	a5,a5,a4
     ed4:	8782                	jr	a5
C:\MRS_DATA\workspace\queue1\obj/../StdPeriphDriver/CH59x_gpio.c:30
    {
        case GPIO_ModeIN_Floating:
            R32_PA_PD_DRV &= ~pin;
     ed6:	400017b7          	lui	a5,0x40001
     eda:	0b47a703          	lw	a4,180(a5) # 400010b4 <_eusrstack+0x1fffa8b4>
     ede:	fff54513          	not	a0,a0
     ee2:	8f69                	and	a4,a4,a0
     ee4:	0ae7aa23          	sw	a4,180(a5)
C:\MRS_DATA\workspace\queue1\obj/../StdPeriphDriver/CH59x_gpio.c:31
            R32_PA_PU &= ~pin;
     ee8:	0b07a703          	lw	a4,176(a5)
C:\MRS_DATA\workspace\queue1\obj/../StdPeriphDriver/CH59x_gpio.c:43
            R32_PA_DIR &= ~pin;
            break;

        case GPIO_ModeIN_PD:
            R32_PA_PD_DRV |= pin;
            R32_PA_PU &= ~pin;
     eec:	8f69                	and	a4,a4,a0
     eee:	0ae7a823          	sw	a4,176(a5)
C:\MRS_DATA\workspace\queue1\obj/../StdPeriphDriver/CH59x_gpio.c:44
            R32_PA_DIR &= ~pin;
     ef2:	0a07a703          	lw	a4,160(a5)
     ef6:	8d79                	and	a0,a0,a4
C:\MRS_DATA\workspace\queue1\obj/../StdPeriphDriver/CH59x_gpio.c:54
            R32_PA_DIR |= pin;
            break;

        case GPIO_ModeOut_PP_20mA:
            R32_PA_PD_DRV |= pin;
            R32_PA_DIR |= pin;
     ef8:	0aa7a023          	sw	a0,160(a5)
C:\MRS_DATA\workspace\queue1\obj/../StdPeriphDriver/CH59x_gpio.c:60
            break;

        default:
            break;
    }
}
     efc:	8082                	ret
C:\MRS_DATA\workspace\queue1\obj/../StdPeriphDriver/CH59x_gpio.c:36
            R32_PA_PD_DRV &= ~pin;
     efe:	400017b7          	lui	a5,0x40001
     f02:	0b47a683          	lw	a3,180(a5) # 400010b4 <_eusrstack+0x1fffa8b4>
     f06:	fff54713          	not	a4,a0
     f0a:	8ef9                	and	a3,a3,a4
     f0c:	0ad7aa23          	sw	a3,180(a5)
C:\MRS_DATA\workspace\queue1\obj/../StdPeriphDriver/CH59x_gpio.c:37
            R32_PA_PU |= pin;
     f10:	0b07a683          	lw	a3,176(a5)
     f14:	8d55                	or	a0,a0,a3
     f16:	0aa7a823          	sw	a0,176(a5)
C:\MRS_DATA\workspace\queue1\obj/../StdPeriphDriver/CH59x_gpio.c:38
            R32_PA_DIR &= ~pin;
     f1a:	0a07a683          	lw	a3,160(a5)
     f1e:	8f75                	and	a4,a4,a3
     f20:	0ae7a023          	sw	a4,160(a5)
C:\MRS_DATA\workspace\queue1\obj/../StdPeriphDriver/CH59x_gpio.c:39
            break;
     f24:	8082                	ret
C:\MRS_DATA\workspace\queue1\obj/../StdPeriphDriver/CH59x_gpio.c:42
            R32_PA_PD_DRV |= pin;
     f26:	400017b7          	lui	a5,0x40001
     f2a:	0b47a703          	lw	a4,180(a5) # 400010b4 <_eusrstack+0x1fffa8b4>
     f2e:	8f49                	or	a4,a4,a0
     f30:	0ae7aa23          	sw	a4,180(a5)
C:\MRS_DATA\workspace\queue1\obj/../StdPeriphDriver/CH59x_gpio.c:43
            R32_PA_PU &= ~pin;
     f34:	0b07a703          	lw	a4,176(a5)
     f38:	fff54513          	not	a0,a0
     f3c:	bf45                	j	eec <GPIOA_ModeCfg+0x2e>
C:\MRS_DATA\workspace\queue1\obj/../StdPeriphDriver/CH59x_gpio.c:48
            R32_PA_PD_DRV &= ~pin;
     f3e:	400017b7          	lui	a5,0x40001
     f42:	0b47a683          	lw	a3,180(a5) # 400010b4 <_eusrstack+0x1fffa8b4>
     f46:	fff54713          	not	a4,a0
     f4a:	8f75                	and	a4,a4,a3
C:\MRS_DATA\workspace\queue1\obj/../StdPeriphDriver/CH59x_gpio.c:53
            R32_PA_PD_DRV |= pin;
     f4c:	0ae7aa23          	sw	a4,180(a5)
C:\MRS_DATA\workspace\queue1\obj/../StdPeriphDriver/CH59x_gpio.c:54
            R32_PA_DIR |= pin;
     f50:	0a07a703          	lw	a4,160(a5)
     f54:	8d59                	or	a0,a0,a4
     f56:	b74d                	j	ef8 <GPIOA_ModeCfg+0x3a>
C:\MRS_DATA\workspace\queue1\obj/../StdPeriphDriver/CH59x_gpio.c:53
            R32_PA_PD_DRV |= pin;
     f58:	400017b7          	lui	a5,0x40001
     f5c:	0b47a703          	lw	a4,180(a5) # 400010b4 <_eusrstack+0x1fffa8b4>
     f60:	8f49                	or	a4,a4,a0
     f62:	b7ed                	j	f4c <GPIOA_ModeCfg+0x8e>

00000f64 <GetSysClock>:
GetSysClock():
C:\MRS_DATA\workspace\queue1\obj/../StdPeriphDriver/CH59x_sys.c:84
    rev = R32_CLK_SYS_CFG & 0xff;
     f64:	400017b7          	lui	a5,0x40001
     f68:	4788                	lw	a0,8(a5)
     f6a:	0542                	slli	a0,a0,0x10
     f6c:	8141                	srli	a0,a0,0x10
C:\MRS_DATA\workspace\queue1\obj/../StdPeriphDriver/CH59x_sys.c:85
    if((rev & 0x40) == (0 << 6))
     f6e:	04057793          	andi	a5,a0,64
     f72:	eb91                	bnez	a5,f86 <GetSysClock+0x22>
C:\MRS_DATA\workspace\queue1\obj/../StdPeriphDriver/CH59x_sys.c:87
        return (32000000 / (rev & 0x1f));
     f74:	01f57793          	andi	a5,a0,31
     f78:	01e85537          	lui	a0,0x1e85
C:\MRS_DATA\workspace\queue1\obj/../StdPeriphDriver/CH59x_sys.c:91
        return (480000000 / (rev & 0x1f));
     f7c:	80050513          	addi	a0,a0,-2048 # 1e84800 <_data_lma+0x1e82a20>
     f80:	02f54533          	div	a0,a0,a5
     f84:	8082                	ret
C:\MRS_DATA\workspace\queue1\obj/../StdPeriphDriver/CH59x_sys.c:89
    else if((rev & RB_CLK_SYS_MOD) == (1 << 6))
     f86:	0c057793          	andi	a5,a0,192
     f8a:	04000713          	li	a4,64
     f8e:	00e79763          	bne	a5,a4,f9c <GetSysClock+0x38>
C:\MRS_DATA\workspace\queue1\obj/../StdPeriphDriver/CH59x_sys.c:91
        return (480000000 / (rev & 0x1f));
     f92:	01f57793          	andi	a5,a0,31
     f96:	1c9c4537          	lui	a0,0x1c9c4
     f9a:	b7cd                	j	f7c <GetSysClock+0x18>
C:\MRS_DATA\workspace\queue1\obj/../StdPeriphDriver/CH59x_sys.c:95
        return (32000);
     f9c:	6521                	lui	a0,0x8
     f9e:	d0050513          	addi	a0,a0,-768 # 7d00 <_data_lma+0x5f20>
C:\MRS_DATA\workspace\queue1\obj/../StdPeriphDriver/CH59x_sys.c:97
}
     fa2:	8082                	ret

00000fa4 <UART1_BaudRateCfg>:
UART1_BaudRateCfg():
C:\MRS_DATA\workspace\queue1\obj/../StdPeriphDriver/CH59x_uart1.c:43
 * @param   baudrate    - 波特率
 *
 * @return  none
 */
void UART1_BaudRateCfg(uint32_t baudrate)
{
     fa4:	1141                	addi	sp,sp,-16
     fa6:	c422                	sw	s0,8(sp)
     fa8:	c606                	sw	ra,12(sp)
     faa:	842a                	mv	s0,a0
C:\MRS_DATA\workspace\queue1\obj/../StdPeriphDriver/CH59x_uart1.c:46
    uint32_t x;

    x = 10 * GetSysClock() / 8 / baudrate;
     fac:	3f65                	jal	f64 <GetSysClock>
     fae:	4729                	li	a4,10
     fb0:	02e507b3          	mul	a5,a0,a4
C:\MRS_DATA\workspace\queue1\obj/../StdPeriphDriver/CH59x_uart1.c:49
    x = (x + 5) / 10;
    R16_UART1_DL = (uint16_t)x;
}
     fb4:	40b2                	lw	ra,12(sp)
C:\MRS_DATA\workspace\queue1\obj/../StdPeriphDriver/CH59x_uart1.c:46
    x = 10 * GetSysClock() / 8 / baudrate;
     fb6:	838d                	srli	a5,a5,0x3
     fb8:	0287d7b3          	divu	a5,a5,s0
C:\MRS_DATA\workspace\queue1\obj/../StdPeriphDriver/CH59x_uart1.c:49
}
     fbc:	4422                	lw	s0,8(sp)
C:\MRS_DATA\workspace\queue1\obj/../StdPeriphDriver/CH59x_uart1.c:47
    x = (x + 5) / 10;
     fbe:	0795                	addi	a5,a5,5
     fc0:	02e7d7b3          	divu	a5,a5,a4
C:\MRS_DATA\workspace\queue1\obj/../StdPeriphDriver/CH59x_uart1.c:48
    R16_UART1_DL = (uint16_t)x;
     fc4:	40003737          	lui	a4,0x40003
     fc8:	07c2                	slli	a5,a5,0x10
     fca:	83c1                	srli	a5,a5,0x10
     fcc:	40f71623          	sh	a5,1036(a4) # 4000340c <_eusrstack+0x1fffcc0c>
C:\MRS_DATA\workspace\queue1\obj/../StdPeriphDriver/CH59x_uart1.c:49
}
     fd0:	0141                	addi	sp,sp,16
     fd2:	8082                	ret

00000fd4 <UART1_DefInit>:
UART1_DefInit():
C:\MRS_DATA\workspace\queue1\obj/../StdPeriphDriver/CH59x_uart1.c:26
    UART1_BaudRateCfg(115200);
     fd4:	6571                	lui	a0,0x1c
C:\MRS_DATA\workspace\queue1\obj/../StdPeriphDriver/CH59x_uart1.c:25
{
     fd6:	1141                	addi	sp,sp,-16
C:\MRS_DATA\workspace\queue1\obj/../StdPeriphDriver/CH59x_uart1.c:26
    UART1_BaudRateCfg(115200);
     fd8:	20050513          	addi	a0,a0,512 # 1c200 <_data_lma+0x1a420>
C:\MRS_DATA\workspace\queue1\obj/../StdPeriphDriver/CH59x_uart1.c:25
{
     fdc:	c606                	sw	ra,12(sp)
C:\MRS_DATA\workspace\queue1\obj/../StdPeriphDriver/CH59x_uart1.c:26
    UART1_BaudRateCfg(115200);
     fde:	37d9                	jal	fa4 <UART1_BaudRateCfg>
C:\MRS_DATA\workspace\queue1\obj/../StdPeriphDriver/CH59x_uart1.c:27
    R8_UART1_FCR = (2 << 6) | RB_FCR_TX_FIFO_CLR | RB_FCR_RX_FIFO_CLR | RB_FCR_FIFO_EN; // FIFO打开，触发点4字节
     fe0:	400037b7          	lui	a5,0x40003
     fe4:	f8700713          	li	a4,-121
     fe8:	40e78123          	sb	a4,1026(a5) # 40003402 <_eusrstack+0x1fffcc02>
C:\MRS_DATA\workspace\queue1\obj/../StdPeriphDriver/CH59x_uart1.c:28
    R8_UART1_LCR = RB_LCR_WORD_SZ;
     fec:	470d                	li	a4,3
     fee:	40e781a3          	sb	a4,1027(a5)
C:\MRS_DATA\workspace\queue1\obj/../StdPeriphDriver/CH59x_uart1.c:29
    R8_UART1_IER = RB_IER_TXD_EN;
     ff2:	04000713          	li	a4,64
     ff6:	40e780a3          	sb	a4,1025(a5)
C:\MRS_DATA\workspace\queue1\obj/../StdPeriphDriver/CH59x_uart1.c:30
    R8_UART1_DIV = 1;
     ffa:	4705                	li	a4,1
     ffc:	40e78723          	sb	a4,1038(a5)
C:\MRS_DATA\workspace\queue1\obj/../StdPeriphDriver/CH59x_uart1.c:31
}
    1000:	40b2                	lw	ra,12(sp)
    1002:	0141                	addi	sp,sp,16
    1004:	8082                	ret

00001006 <UART1_ByteTrigCfg>:
UART1_ByteTrigCfg():
C:\MRS_DATA\workspace\queue1\obj/../StdPeriphDriver/CH59x_uart1.c:62
 *
 * @return  none
 */
void UART1_ByteTrigCfg(UARTByteTRIGTypeDef b)
{
    R8_UART1_FCR = (R8_UART1_FCR & ~RB_FCR_FIFO_TRIG) | (b << 6);
    1006:	40003737          	lui	a4,0x40003
    100a:	40274783          	lbu	a5,1026(a4) # 40003402 <_eusrstack+0x1fffcc02>
    100e:	051a                	slli	a0,a0,0x6
    1010:	03f7f793          	andi	a5,a5,63
    1014:	8fc9                	or	a5,a5,a0
    1016:	0ff7f793          	andi	a5,a5,255
    101a:	40f70123          	sb	a5,1026(a4)
C:\MRS_DATA\workspace\queue1\obj/../StdPeriphDriver/CH59x_uart1.c:63
}
    101e:	8082                	ret

00001020 <UART1_INTCfg>:
UART1_INTCfg():
C:\MRS_DATA\workspace\queue1\obj/../StdPeriphDriver/CH59x_uart1.c:83
 */
void UART1_INTCfg(FunctionalState s, uint8_t i)
{
    if(s)
    {
        R8_UART1_IER |= i;
    1020:	400037b7          	lui	a5,0x40003
    1024:	4017c703          	lbu	a4,1025(a5) # 40003401 <_eusrstack+0x1fffcc01>
C:\MRS_DATA\workspace\queue1\obj/../StdPeriphDriver/CH59x_uart1.c:81
    if(s)
    1028:	c919                	beqz	a0,103e <UART1_INTCfg+0x1e>
C:\MRS_DATA\workspace\queue1\obj/../StdPeriphDriver/CH59x_uart1.c:83
        R8_UART1_IER |= i;
    102a:	8dd9                	or	a1,a1,a4
    102c:	40b780a3          	sb	a1,1025(a5)
C:\MRS_DATA\workspace\queue1\obj/../StdPeriphDriver/CH59x_uart1.c:84
        R8_UART1_MCR |= RB_MCR_INT_OE;
    1030:	4007c703          	lbu	a4,1024(a5)
    1034:	00876713          	ori	a4,a4,8
    1038:	40e78023          	sb	a4,1024(a5)
    103c:	8082                	ret
C:\MRS_DATA\workspace\queue1\obj/../StdPeriphDriver/CH59x_uart1.c:88
    }
    else
    {
        R8_UART1_IER &= ~i;
    103e:	fff5c593          	not	a1,a1
    1042:	8df9                	and	a1,a1,a4
    1044:	40b780a3          	sb	a1,1025(a5)
C:\MRS_DATA\workspace\queue1\obj/../StdPeriphDriver/CH59x_uart1.c:90
    }
}
    1048:	8082                	ret

0000104a <UART1_SendString>:
UART1_SendString():
C:\MRS_DATA\workspace\queue1\obj/../StdPeriphDriver/CH59x_uart1.c:122
{
    uint16_t len = l;

    while(len)
    {
        if(R8_UART1_TFC != UART_FIFO_SIZE)
    104a:	400037b7          	lui	a5,0x40003
    104e:	4721                	li	a4,8
    1050:	400036b7          	lui	a3,0x40003
C:\MRS_DATA\workspace\queue1\obj/../StdPeriphDriver/CH59x_uart1.c:120
    while(len)
    1054:	e191                	bnez	a1,1058 <UART1_SendString+0xe>
C:\MRS_DATA\workspace\queue1\obj/../StdPeriphDriver/CH59x_uart1.c:128
        {
            R8_UART1_THR = *buf++;
            len--;
        }
    }
}
    1056:	8082                	ret
C:\MRS_DATA\workspace\queue1\obj/../StdPeriphDriver/CH59x_uart1.c:122
        if(R8_UART1_TFC != UART_FIFO_SIZE)
    1058:	40b7c603          	lbu	a2,1035(a5) # 4000340b <_eusrstack+0x1fffcc0b>
    105c:	fec70ce3          	beq	a4,a2,1054 <UART1_SendString+0xa>
C:\MRS_DATA\workspace\queue1\obj/../StdPeriphDriver/CH59x_uart1.c:124
            R8_UART1_THR = *buf++;
    1060:	0505                	addi	a0,a0,1
    1062:	fff54603          	lbu	a2,-1(a0)
C:\MRS_DATA\workspace\queue1\obj/../StdPeriphDriver/CH59x_uart1.c:125
            len--;
    1066:	15fd                	addi	a1,a1,-1
    1068:	05c2                	slli	a1,a1,0x10
C:\MRS_DATA\workspace\queue1\obj/../StdPeriphDriver/CH59x_uart1.c:124
            R8_UART1_THR = *buf++;
    106a:	40c68423          	sb	a2,1032(a3) # 40003408 <_eusrstack+0x1fffcc08>
C:\MRS_DATA\workspace\queue1\obj/../StdPeriphDriver/CH59x_uart1.c:125
            len--;
    106e:	81c1                	srli	a1,a1,0x10
    1070:	b7d5                	j	1054 <UART1_SendString+0xa>

00001072 <UART1_RecvString>:
UART1_RecvString():
C:\MRS_DATA\workspace\queue1\obj/../StdPeriphDriver/CH59x_uart1.c:143
 */
uint16_t UART1_RecvString(uint8_t *buf)
{
    uint16_t len = 0;

    while(R8_UART1_RFC)
    1072:	4781                	li	a5,0
    1074:	400036b7          	lui	a3,0x40003
    1078:	40a6c703          	lbu	a4,1034(a3) # 4000340a <_eusrstack+0x1fffcc0a>
    107c:	01079613          	slli	a2,a5,0x10
    1080:	8241                	srli	a2,a2,0x10
    1082:	0ff77713          	andi	a4,a4,255
    1086:	e319                	bnez	a4,108c <UART1_RecvString+0x1a>
C:\MRS_DATA\workspace\queue1\obj/../StdPeriphDriver/CH59x_uart1.c:150
        *buf++ = R8_UART1_RBR;
        len++;
    }

    return (len);
}
    1088:	8532                	mv	a0,a2
    108a:	8082                	ret
C:\MRS_DATA\workspace\queue1\obj/../StdPeriphDriver/CH59x_uart1.c:145
        *buf++ = R8_UART1_RBR;
    108c:	4086c603          	lbu	a2,1032(a3)
    1090:	00f50733          	add	a4,a0,a5
    1094:	0785                	addi	a5,a5,1
    1096:	00c70023          	sb	a2,0(a4)
C:\MRS_DATA\workspace\queue1\obj/../StdPeriphDriver/CH59x_uart1.c:146
        len++;
    109a:	bff9                	j	1078 <UART1_RecvString+0x6>

0000109c <UART3_BaudRateCfg>:
UART3_BaudRateCfg():
C:\MRS_DATA\workspace\queue1\obj/../StdPeriphDriver/CH59x_uart3.c:43
 * @param   baudrate    - 波特率
 *
 * @return  none
 */
void UART3_BaudRateCfg(uint32_t baudrate)
{
    109c:	1141                	addi	sp,sp,-16
    109e:	c422                	sw	s0,8(sp)
    10a0:	c606                	sw	ra,12(sp)
    10a2:	842a                	mv	s0,a0
C:\MRS_DATA\workspace\queue1\obj/../StdPeriphDriver/CH59x_uart3.c:46
    uint32_t x;

    x = 10 * GetSysClock() / 8 / baudrate;
    10a4:	35c1                	jal	f64 <GetSysClock>
    10a6:	4729                	li	a4,10
    10a8:	02e507b3          	mul	a5,a0,a4
C:\MRS_DATA\workspace\queue1\obj/../StdPeriphDriver/CH59x_uart3.c:49
    x = (x + 5) / 10;
    R16_UART3_DL = (uint16_t)x;
}
    10ac:	40b2                	lw	ra,12(sp)
C:\MRS_DATA\workspace\queue1\obj/../StdPeriphDriver/CH59x_uart3.c:46
    x = 10 * GetSysClock() / 8 / baudrate;
    10ae:	838d                	srli	a5,a5,0x3
    10b0:	0287d7b3          	divu	a5,a5,s0
C:\MRS_DATA\workspace\queue1\obj/../StdPeriphDriver/CH59x_uart3.c:49
}
    10b4:	4422                	lw	s0,8(sp)
C:\MRS_DATA\workspace\queue1\obj/../StdPeriphDriver/CH59x_uart3.c:47
    x = (x + 5) / 10;
    10b6:	0795                	addi	a5,a5,5
    10b8:	02e7d7b3          	divu	a5,a5,a4
C:\MRS_DATA\workspace\queue1\obj/../StdPeriphDriver/CH59x_uart3.c:48
    R16_UART3_DL = (uint16_t)x;
    10bc:	40004737          	lui	a4,0x40004
    10c0:	07c2                	slli	a5,a5,0x10
    10c2:	83c1                	srli	a5,a5,0x10
    10c4:	c0f71623          	sh	a5,-1012(a4) # 40003c0c <_eusrstack+0x1fffd40c>
C:\MRS_DATA\workspace\queue1\obj/../StdPeriphDriver/CH59x_uart3.c:49
}
    10c8:	0141                	addi	sp,sp,16
    10ca:	8082                	ret

000010cc <UART3_DefInit>:
UART3_DefInit():
C:\MRS_DATA\workspace\queue1\obj/../StdPeriphDriver/CH59x_uart3.c:26
    UART3_BaudRateCfg(115200);
    10cc:	6571                	lui	a0,0x1c
C:\MRS_DATA\workspace\queue1\obj/../StdPeriphDriver/CH59x_uart3.c:25
{
    10ce:	1141                	addi	sp,sp,-16
C:\MRS_DATA\workspace\queue1\obj/../StdPeriphDriver/CH59x_uart3.c:26
    UART3_BaudRateCfg(115200);
    10d0:	20050513          	addi	a0,a0,512 # 1c200 <_data_lma+0x1a420>
C:\MRS_DATA\workspace\queue1\obj/../StdPeriphDriver/CH59x_uart3.c:25
{
    10d4:	c606                	sw	ra,12(sp)
C:\MRS_DATA\workspace\queue1\obj/../StdPeriphDriver/CH59x_uart3.c:26
    UART3_BaudRateCfg(115200);
    10d6:	37d9                	jal	109c <UART3_BaudRateCfg>
C:\MRS_DATA\workspace\queue1\obj/../StdPeriphDriver/CH59x_uart3.c:27
    R8_UART3_FCR = (2 << 6) | RB_FCR_TX_FIFO_CLR | RB_FCR_RX_FIFO_CLR | RB_FCR_FIFO_EN; // FIFO打开，触发点4字节
    10d8:	400047b7          	lui	a5,0x40004
    10dc:	f8700713          	li	a4,-121
    10e0:	c0e78123          	sb	a4,-1022(a5) # 40003c02 <_eusrstack+0x1fffd402>
C:\MRS_DATA\workspace\queue1\obj/../StdPeriphDriver/CH59x_uart3.c:28
    R8_UART3_LCR = RB_LCR_WORD_SZ;
    10e4:	470d                	li	a4,3
    10e6:	c0e781a3          	sb	a4,-1021(a5)
C:\MRS_DATA\workspace\queue1\obj/../StdPeriphDriver/CH59x_uart3.c:29
    R8_UART3_IER = RB_IER_TXD_EN;
    10ea:	04000713          	li	a4,64
    10ee:	c0e780a3          	sb	a4,-1023(a5)
C:\MRS_DATA\workspace\queue1\obj/../StdPeriphDriver/CH59x_uart3.c:30
    R8_UART3_DIV = 1;
    10f2:	4705                	li	a4,1
    10f4:	c0e78723          	sb	a4,-1010(a5)
C:\MRS_DATA\workspace\queue1\obj/../StdPeriphDriver/CH59x_uart3.c:31
}
    10f8:	40b2                	lw	ra,12(sp)
    10fa:	0141                	addi	sp,sp,16
    10fc:	8082                	ret

000010fe <UART3_ByteTrigCfg>:
UART3_ByteTrigCfg():
C:\MRS_DATA\workspace\queue1\obj/../StdPeriphDriver/CH59x_uart3.c:62
 *
 * @return  none
 */
void UART3_ByteTrigCfg(UARTByteTRIGTypeDef b)
{
    R8_UART3_FCR = (R8_UART3_FCR & ~RB_FCR_FIFO_TRIG) | (b << 6);
    10fe:	40004737          	lui	a4,0x40004
    1102:	c0274783          	lbu	a5,-1022(a4) # 40003c02 <_eusrstack+0x1fffd402>
    1106:	051a                	slli	a0,a0,0x6
    1108:	03f7f793          	andi	a5,a5,63
    110c:	8fc9                	or	a5,a5,a0
    110e:	0ff7f793          	andi	a5,a5,255
    1112:	c0f70123          	sb	a5,-1022(a4)
C:\MRS_DATA\workspace\queue1\obj/../StdPeriphDriver/CH59x_uart3.c:63
}
    1116:	8082                	ret

00001118 <UART3_INTCfg>:
UART3_INTCfg():
C:\MRS_DATA\workspace\queue1\obj/../StdPeriphDriver/CH59x_uart3.c:83
 */
void UART3_INTCfg(FunctionalState s, uint8_t i)
{
    if(s)
    {
        R8_UART3_IER |= i;
    1118:	400047b7          	lui	a5,0x40004
    111c:	c017c703          	lbu	a4,-1023(a5) # 40003c01 <_eusrstack+0x1fffd401>
C:\MRS_DATA\workspace\queue1\obj/../StdPeriphDriver/CH59x_uart3.c:81
    if(s)
    1120:	c919                	beqz	a0,1136 <UART3_INTCfg+0x1e>
C:\MRS_DATA\workspace\queue1\obj/../StdPeriphDriver/CH59x_uart3.c:83
        R8_UART3_IER |= i;
    1122:	8dd9                	or	a1,a1,a4
    1124:	c0b780a3          	sb	a1,-1023(a5)
C:\MRS_DATA\workspace\queue1\obj/../StdPeriphDriver/CH59x_uart3.c:84
        R8_UART3_MCR |= RB_MCR_INT_OE;
    1128:	c007c703          	lbu	a4,-1024(a5)
    112c:	00876713          	ori	a4,a4,8
    1130:	c0e78023          	sb	a4,-1024(a5)
    1134:	8082                	ret
C:\MRS_DATA\workspace\queue1\obj/../StdPeriphDriver/CH59x_uart3.c:88
    }
    else
    {
        R8_UART3_IER &= ~i;
    1136:	fff5c593          	not	a1,a1
    113a:	8df9                	and	a1,a1,a4
    113c:	c0b780a3          	sb	a1,-1023(a5)
C:\MRS_DATA\workspace\queue1\obj/../StdPeriphDriver/CH59x_uart3.c:90
    }
}
    1140:	8082                	ret

00001142 <UART3_SendString>:
UART3_SendString():
C:\MRS_DATA\workspace\queue1\obj/../StdPeriphDriver/CH59x_uart3.c:122
{
    uint16_t len = l;

    while(len)
    {
        if(R8_UART3_TFC != UART_FIFO_SIZE)
    1142:	400047b7          	lui	a5,0x40004
    1146:	4721                	li	a4,8
    1148:	400046b7          	lui	a3,0x40004
C:\MRS_DATA\workspace\queue1\obj/../StdPeriphDriver/CH59x_uart3.c:120
    while(len)
    114c:	e191                	bnez	a1,1150 <UART3_SendString+0xe>
C:\MRS_DATA\workspace\queue1\obj/../StdPeriphDriver/CH59x_uart3.c:128
        {
            R8_UART3_THR = *buf++;
            len--;
        }
    }
}
    114e:	8082                	ret
C:\MRS_DATA\workspace\queue1\obj/../StdPeriphDriver/CH59x_uart3.c:122
        if(R8_UART3_TFC != UART_FIFO_SIZE)
    1150:	c0b7c603          	lbu	a2,-1013(a5) # 40003c0b <_eusrstack+0x1fffd40b>
    1154:	fec70ce3          	beq	a4,a2,114c <UART3_SendString+0xa>
C:\MRS_DATA\workspace\queue1\obj/../StdPeriphDriver/CH59x_uart3.c:124
            R8_UART3_THR = *buf++;
    1158:	0505                	addi	a0,a0,1
    115a:	fff54603          	lbu	a2,-1(a0)
C:\MRS_DATA\workspace\queue1\obj/../StdPeriphDriver/CH59x_uart3.c:125
            len--;
    115e:	15fd                	addi	a1,a1,-1
    1160:	05c2                	slli	a1,a1,0x10
C:\MRS_DATA\workspace\queue1\obj/../StdPeriphDriver/CH59x_uart3.c:124
            R8_UART3_THR = *buf++;
    1162:	c0c68423          	sb	a2,-1016(a3) # 40003c08 <_eusrstack+0x1fffd408>
C:\MRS_DATA\workspace\queue1\obj/../StdPeriphDriver/CH59x_uart3.c:125
            len--;
    1166:	81c1                	srli	a1,a1,0x10
    1168:	b7d5                	j	114c <UART3_SendString+0xa>

0000116a <UART3_RecvString>:
UART3_RecvString():
C:\MRS_DATA\workspace\queue1\obj/../StdPeriphDriver/CH59x_uart3.c:143
 */
uint16_t UART3_RecvString(uint8_t *buf)
{
    uint16_t len = 0;

    while(R8_UART3_RFC)
    116a:	4781                	li	a5,0
    116c:	400046b7          	lui	a3,0x40004
    1170:	c0a6c703          	lbu	a4,-1014(a3) # 40003c0a <_eusrstack+0x1fffd40a>
    1174:	01079613          	slli	a2,a5,0x10
    1178:	8241                	srli	a2,a2,0x10
    117a:	0ff77713          	andi	a4,a4,255
    117e:	e319                	bnez	a4,1184 <UART3_RecvString+0x1a>
C:\MRS_DATA\workspace\queue1\obj/../StdPeriphDriver/CH59x_uart3.c:150
        *buf++ = R8_UART3_RBR;
        len++;
    }

    return (len);
}
    1180:	8532                	mv	a0,a2
    1182:	8082                	ret
C:\MRS_DATA\workspace\queue1\obj/../StdPeriphDriver/CH59x_uart3.c:145
        *buf++ = R8_UART3_RBR;
    1184:	c086c603          	lbu	a2,-1016(a3)
    1188:	00f50733          	add	a4,a0,a5
    118c:	0785                	addi	a5,a5,1
    118e:	00c70023          	sb	a2,0(a4)
C:\MRS_DATA\workspace\queue1\obj/../StdPeriphDriver/CH59x_uart3.c:146
        len++;
    1192:	bff9                	j	1170 <UART3_RecvString+0x6>

00001194 <memcpy>:
memcpy():
    1194:	00a5c7b3          	xor	a5,a1,a0
    1198:	8b8d                	andi	a5,a5,3
    119a:	00c50733          	add	a4,a0,a2
    119e:	e781                	bnez	a5,11a6 <memcpy+0x12>
    11a0:	478d                	li	a5,3
    11a2:	00c7ee63          	bltu	a5,a2,11be <memcpy+0x2a>
    11a6:	87aa                	mv	a5,a0
    11a8:	0ae57063          	bgeu	a0,a4,1248 <memcpy+0xb4>
    11ac:	0005c683          	lbu	a3,0(a1)
    11b0:	0785                	addi	a5,a5,1
    11b2:	0585                	addi	a1,a1,1
    11b4:	fed78fa3          	sb	a3,-1(a5)
    11b8:	fee7eae3          	bltu	a5,a4,11ac <memcpy+0x18>
    11bc:	8082                	ret
    11be:	00357693          	andi	a3,a0,3
    11c2:	87aa                	mv	a5,a0
    11c4:	ca91                	beqz	a3,11d8 <memcpy+0x44>
    11c6:	0005c683          	lbu	a3,0(a1)
    11ca:	0785                	addi	a5,a5,1
    11cc:	0585                	addi	a1,a1,1
    11ce:	fed78fa3          	sb	a3,-1(a5)
    11d2:	0037f693          	andi	a3,a5,3
    11d6:	b7fd                	j	11c4 <memcpy+0x30>
    11d8:	ffc77693          	andi	a3,a4,-4
    11dc:	fe068613          	addi	a2,a3,-32
    11e0:	06c7f063          	bgeu	a5,a2,1240 <memcpy+0xac>
    11e4:	0005a383          	lw	t2,0(a1)
    11e8:	0045a283          	lw	t0,4(a1)
    11ec:	0085af83          	lw	t6,8(a1)
    11f0:	00c5af03          	lw	t5,12(a1)
    11f4:	0105ae83          	lw	t4,16(a1)
    11f8:	0145ae03          	lw	t3,20(a1)
    11fc:	0185a303          	lw	t1,24(a1)
    1200:	01c5a883          	lw	a7,28(a1)
    1204:	02458593          	addi	a1,a1,36
    1208:	0077a023          	sw	t2,0(a5)
    120c:	ffc5a803          	lw	a6,-4(a1)
    1210:	0057a223          	sw	t0,4(a5)
    1214:	01f7a423          	sw	t6,8(a5)
    1218:	01e7a623          	sw	t5,12(a5)
    121c:	01d7a823          	sw	t4,16(a5)
    1220:	01c7aa23          	sw	t3,20(a5)
    1224:	0067ac23          	sw	t1,24(a5)
    1228:	0117ae23          	sw	a7,28(a5)
    122c:	02478793          	addi	a5,a5,36
    1230:	ff07ae23          	sw	a6,-4(a5)
    1234:	b775                	j	11e0 <memcpy+0x4c>
    1236:	4190                	lw	a2,0(a1)
    1238:	0791                	addi	a5,a5,4
    123a:	0591                	addi	a1,a1,4
    123c:	fec7ae23          	sw	a2,-4(a5)
    1240:	fed7ebe3          	bltu	a5,a3,1236 <memcpy+0xa2>
    1244:	f6e7e4e3          	bltu	a5,a4,11ac <memcpy+0x18>
    1248:	8082                	ret

0000124a <sniprintf>:
snprintf():
    124a:	7135                	addi	sp,sp,-160
    124c:	cb3e                	sw	a5,148(sp)
    124e:	daa6                	sw	s1,116(sp)
    1250:	c736                	sw	a3,140(sp)
    1252:	c93a                	sw	a4,144(sp)
    1254:	cd42                	sw	a6,152(sp)
    1256:	cf46                	sw	a7,156(sp)
    1258:	1ffff797          	auipc	a5,0x1ffff
    125c:	69078793          	addi	a5,a5,1680 # 200008e8 <_impure_ptr>
    1260:	de86                	sw	ra,124(sp)
    1262:	dca2                	sw	s0,120(sp)
    1264:	4384                	lw	s1,0(a5)
    1266:	0005db63          	bgez	a1,127c <sniprintf+0x32>
    126a:	08b00793          	li	a5,139
    126e:	c09c                	sw	a5,0(s1)
    1270:	557d                	li	a0,-1
    1272:	50f6                	lw	ra,124(sp)
    1274:	5466                	lw	s0,120(sp)
    1276:	54d6                	lw	s1,116(sp)
    1278:	610d                	addi	sp,sp,160
    127a:	8082                	ret
    127c:	20800793          	li	a5,520
    1280:	00f11a23          	sh	a5,20(sp)
    1284:	c42a                	sw	a0,8(sp)
    1286:	cc2a                	sw	a0,24(sp)
    1288:	4781                	li	a5,0
    128a:	c199                	beqz	a1,1290 <sniprintf+0x46>
    128c:	fff58793          	addi	a5,a1,-1
    1290:	c83e                	sw	a5,16(sp)
    1292:	ce3e                	sw	a5,28(sp)
    1294:	0174                	addi	a3,sp,140
    1296:	57fd                	li	a5,-1
    1298:	842e                	mv	s0,a1
    129a:	8526                	mv	a0,s1
    129c:	002c                	addi	a1,sp,8
    129e:	00f11b23          	sh	a5,22(sp)
    12a2:	c236                	sw	a3,4(sp)
    12a4:	2479                	jal	1532 <_svfiprintf_r>
    12a6:	57fd                	li	a5,-1
    12a8:	00f55563          	bge	a0,a5,12b2 <sniprintf+0x68>
    12ac:	08b00793          	li	a5,139
    12b0:	c09c                	sw	a5,0(s1)
    12b2:	d061                	beqz	s0,1272 <sniprintf+0x28>
    12b4:	47a2                	lw	a5,8(sp)
    12b6:	00078023          	sb	zero,0(a5)
    12ba:	bf65                	j	1272 <sniprintf+0x28>

000012bc <strlen>:
strlen():
    12bc:	87aa                	mv	a5,a0
    12be:	0785                	addi	a5,a5,1
    12c0:	fff7c703          	lbu	a4,-1(a5)
    12c4:	ff6d                	bnez	a4,12be <strlen+0x2>
    12c6:	40a78533          	sub	a0,a5,a0
    12ca:	157d                	addi	a0,a0,-1
    12cc:	8082                	ret

000012ce <_free_r>:
_free_r():
    12ce:	c1dd                	beqz	a1,1374 <_free_r+0xa6>
    12d0:	ffc5a783          	lw	a5,-4(a1)
    12d4:	1141                	addi	sp,sp,-16
    12d6:	c422                	sw	s0,8(sp)
    12d8:	c606                	sw	ra,12(sp)
    12da:	c226                	sw	s1,4(sp)
    12dc:	ffc58413          	addi	s0,a1,-4
    12e0:	0007d363          	bgez	a5,12e6 <_free_r+0x18>
    12e4:	943e                	add	s0,s0,a5
    12e6:	84aa                	mv	s1,a0
    12e8:	101000ef          	jal	ra,1be8 <__malloc_lock>
    12ec:	81018793          	addi	a5,gp,-2032 # 200008f8 <__malloc_free_list>
    12f0:	439c                	lw	a5,0(a5)
    12f2:	ef81                	bnez	a5,130a <_free_r+0x3c>
    12f4:	00042223          	sw	zero,4(s0)
    12f8:	8081a823          	sw	s0,-2032(gp) # 200008f8 <__malloc_free_list>
    12fc:	4422                	lw	s0,8(sp)
    12fe:	40b2                	lw	ra,12(sp)
    1300:	8526                	mv	a0,s1
    1302:	4492                	lw	s1,4(sp)
    1304:	0141                	addi	sp,sp,16
    1306:	0e50006f          	j	1bea <__malloc_unlock>
    130a:	00f47e63          	bgeu	s0,a5,1326 <_free_r+0x58>
    130e:	4014                	lw	a3,0(s0)
    1310:	00d40733          	add	a4,s0,a3
    1314:	00e79663          	bne	a5,a4,1320 <_free_r+0x52>
    1318:	4398                	lw	a4,0(a5)
    131a:	43dc                	lw	a5,4(a5)
    131c:	9736                	add	a4,a4,a3
    131e:	c018                	sw	a4,0(s0)
    1320:	c05c                	sw	a5,4(s0)
    1322:	bfd9                	j	12f8 <_free_r+0x2a>
    1324:	87ba                	mv	a5,a4
    1326:	43d8                	lw	a4,4(a5)
    1328:	c319                	beqz	a4,132e <_free_r+0x60>
    132a:	fee47de3          	bgeu	s0,a4,1324 <_free_r+0x56>
    132e:	4394                	lw	a3,0(a5)
    1330:	00d78633          	add	a2,a5,a3
    1334:	00861f63          	bne	a2,s0,1352 <_free_r+0x84>
    1338:	4010                	lw	a2,0(s0)
    133a:	96b2                	add	a3,a3,a2
    133c:	c394                	sw	a3,0(a5)
    133e:	00d78633          	add	a2,a5,a3
    1342:	fac71de3          	bne	a4,a2,12fc <_free_r+0x2e>
    1346:	4310                	lw	a2,0(a4)
    1348:	4358                	lw	a4,4(a4)
    134a:	96b2                	add	a3,a3,a2
    134c:	c394                	sw	a3,0(a5)
    134e:	c3d8                	sw	a4,4(a5)
    1350:	b775                	j	12fc <_free_r+0x2e>
    1352:	00c47563          	bgeu	s0,a2,135c <_free_r+0x8e>
    1356:	47b1                	li	a5,12
    1358:	c09c                	sw	a5,0(s1)
    135a:	b74d                	j	12fc <_free_r+0x2e>
    135c:	4010                	lw	a2,0(s0)
    135e:	00c406b3          	add	a3,s0,a2
    1362:	00d71663          	bne	a4,a3,136e <_free_r+0xa0>
    1366:	4314                	lw	a3,0(a4)
    1368:	4358                	lw	a4,4(a4)
    136a:	96b2                	add	a3,a3,a2
    136c:	c014                	sw	a3,0(s0)
    136e:	c058                	sw	a4,4(s0)
    1370:	c3c0                	sw	s0,4(a5)
    1372:	b769                	j	12fc <_free_r+0x2e>
    1374:	8082                	ret

00001376 <_malloc_r>:
_malloc_r():
    1376:	1101                	addi	sp,sp,-32
    1378:	ca26                	sw	s1,20(sp)
    137a:	00358493          	addi	s1,a1,3
    137e:	98f1                	andi	s1,s1,-4
    1380:	ce06                	sw	ra,28(sp)
    1382:	cc22                	sw	s0,24(sp)
    1384:	c84a                	sw	s2,16(sp)
    1386:	c64e                	sw	s3,12(sp)
    1388:	04a1                	addi	s1,s1,8
    138a:	47b1                	li	a5,12
    138c:	04f4f563          	bgeu	s1,a5,13d6 <_malloc_r+0x60>
    1390:	44b1                	li	s1,12
    1392:	04b4e463          	bltu	s1,a1,13da <_malloc_r+0x64>
    1396:	892a                	mv	s2,a0
    1398:	051000ef          	jal	ra,1be8 <__malloc_lock>
    139c:	81018793          	addi	a5,gp,-2032 # 200008f8 <__malloc_free_list>
    13a0:	4398                	lw	a4,0(a5)
    13a2:	843a                	mv	s0,a4
    13a4:	e429                	bnez	s0,13ee <_malloc_r+0x78>
    13a6:	81418793          	addi	a5,gp,-2028 # 200008fc <__malloc_sbrk_start>
    13aa:	439c                	lw	a5,0(a5)
    13ac:	e799                	bnez	a5,13ba <_malloc_r+0x44>
    13ae:	4581                	li	a1,0
    13b0:	854a                	mv	a0,s2
    13b2:	7aa000ef          	jal	ra,1b5c <_sbrk_r>
    13b6:	80a1aa23          	sw	a0,-2028(gp) # 200008fc <__malloc_sbrk_start>
    13ba:	85a6                	mv	a1,s1
    13bc:	854a                	mv	a0,s2
    13be:	79e000ef          	jal	ra,1b5c <_sbrk_r>
    13c2:	59fd                	li	s3,-1
    13c4:	07351963          	bne	a0,s3,1436 <_malloc_r+0xc0>
    13c8:	47b1                	li	a5,12
    13ca:	00f92023          	sw	a5,0(s2)
    13ce:	854a                	mv	a0,s2
    13d0:	01b000ef          	jal	ra,1bea <__malloc_unlock>
    13d4:	a029                	j	13de <_malloc_r+0x68>
    13d6:	fa04dee3          	bgez	s1,1392 <_malloc_r+0x1c>
    13da:	47b1                	li	a5,12
    13dc:	c11c                	sw	a5,0(a0)
    13de:	4501                	li	a0,0
    13e0:	40f2                	lw	ra,28(sp)
    13e2:	4462                	lw	s0,24(sp)
    13e4:	44d2                	lw	s1,20(sp)
    13e6:	4942                	lw	s2,16(sp)
    13e8:	49b2                	lw	s3,12(sp)
    13ea:	6105                	addi	sp,sp,32
    13ec:	8082                	ret
    13ee:	401c                	lw	a5,0(s0)
    13f0:	8f85                	sub	a5,a5,s1
    13f2:	0207cf63          	bltz	a5,1430 <_malloc_r+0xba>
    13f6:	46ad                	li	a3,11
    13f8:	00f6f663          	bgeu	a3,a5,1404 <_malloc_r+0x8e>
    13fc:	c01c                	sw	a5,0(s0)
    13fe:	943e                	add	s0,s0,a5
    1400:	c004                	sw	s1,0(s0)
    1402:	a031                	j	140e <_malloc_r+0x98>
    1404:	405c                	lw	a5,4(s0)
    1406:	02871363          	bne	a4,s0,142c <_malloc_r+0xb6>
    140a:	80f1a823          	sw	a5,-2032(gp) # 200008f8 <__malloc_free_list>
    140e:	854a                	mv	a0,s2
    1410:	7da000ef          	jal	ra,1bea <__malloc_unlock>
    1414:	00b40513          	addi	a0,s0,11
    1418:	00440793          	addi	a5,s0,4
    141c:	9961                	andi	a0,a0,-8
    141e:	40f50733          	sub	a4,a0,a5
    1422:	df5d                	beqz	a4,13e0 <_malloc_r+0x6a>
    1424:	943a                	add	s0,s0,a4
    1426:	8f89                	sub	a5,a5,a0
    1428:	c01c                	sw	a5,0(s0)
    142a:	bf5d                	j	13e0 <_malloc_r+0x6a>
    142c:	c35c                	sw	a5,4(a4)
    142e:	b7c5                	j	140e <_malloc_r+0x98>
    1430:	8722                	mv	a4,s0
    1432:	4040                	lw	s0,4(s0)
    1434:	bf85                	j	13a4 <_malloc_r+0x2e>
    1436:	00350413          	addi	s0,a0,3
    143a:	9871                	andi	s0,s0,-4
    143c:	fc8502e3          	beq	a0,s0,1400 <_malloc_r+0x8a>
    1440:	40a405b3          	sub	a1,s0,a0
    1444:	854a                	mv	a0,s2
    1446:	2f19                	jal	1b5c <_sbrk_r>
    1448:	fb351ce3          	bne	a0,s3,1400 <_malloc_r+0x8a>
    144c:	bfb5                	j	13c8 <_malloc_r+0x52>

0000144e <__ssputs_r>:
__ssputs_r():
    144e:	1101                	addi	sp,sp,-32
    1450:	c84a                	sw	s2,16(sp)
    1452:	0085a903          	lw	s2,8(a1)
    1456:	cc22                	sw	s0,24(sp)
    1458:	c452                	sw	s4,8(sp)
    145a:	c05a                	sw	s6,0(sp)
    145c:	ce06                	sw	ra,28(sp)
    145e:	ca26                	sw	s1,20(sp)
    1460:	c64e                	sw	s3,12(sp)
    1462:	c256                	sw	s5,4(sp)
    1464:	842e                	mv	s0,a1
    1466:	8b32                	mv	s6,a2
    1468:	8a36                	mv	s4,a3
    146a:	0926ec63          	bltu	a3,s2,1502 <__ssputs_r+0xb4>
    146e:	00c5d783          	lhu	a5,12(a1)
    1472:	4807f713          	andi	a4,a5,1152
    1476:	c741                	beqz	a4,14fe <__ssputs_r+0xb0>
    1478:	4004                	lw	s1,0(s0)
    147a:	498c                	lw	a1,16(a1)
    147c:	4858                	lw	a4,20(s0)
    147e:	8aaa                	mv	s5,a0
    1480:	40b489b3          	sub	s3,s1,a1
    1484:	448d                	li	s1,3
    1486:	02e484b3          	mul	s1,s1,a4
    148a:	4709                	li	a4,2
    148c:	02e4c4b3          	div	s1,s1,a4
    1490:	00168713          	addi	a4,a3,1
    1494:	974e                	add	a4,a4,s3
    1496:	00e4f363          	bgeu	s1,a4,149c <__ssputs_r+0x4e>
    149a:	84ba                	mv	s1,a4
    149c:	4007f793          	andi	a5,a5,1024
    14a0:	c3c1                	beqz	a5,1520 <__ssputs_r+0xd2>
    14a2:	85a6                	mv	a1,s1
    14a4:	8556                	mv	a0,s5
    14a6:	3dc1                	jal	1376 <_malloc_r>
    14a8:	892a                	mv	s2,a0
    14aa:	e50d                	bnez	a0,14d4 <__ssputs_r+0x86>
    14ac:	47b1                	li	a5,12
    14ae:	00faa023          	sw	a5,0(s5)
    14b2:	00c45783          	lhu	a5,12(s0)
    14b6:	557d                	li	a0,-1
    14b8:	0407e793          	ori	a5,a5,64
    14bc:	00f41623          	sh	a5,12(s0)
    14c0:	40f2                	lw	ra,28(sp)
    14c2:	4462                	lw	s0,24(sp)
    14c4:	44d2                	lw	s1,20(sp)
    14c6:	4942                	lw	s2,16(sp)
    14c8:	49b2                	lw	s3,12(sp)
    14ca:	4a22                	lw	s4,8(sp)
    14cc:	4a92                	lw	s5,4(sp)
    14ce:	4b02                	lw	s6,0(sp)
    14d0:	6105                	addi	sp,sp,32
    14d2:	8082                	ret
    14d4:	480c                	lw	a1,16(s0)
    14d6:	864e                	mv	a2,s3
    14d8:	3975                	jal	1194 <memcpy>
    14da:	00c45783          	lhu	a5,12(s0)
    14de:	b7f7f793          	andi	a5,a5,-1153
    14e2:	0807e793          	ori	a5,a5,128
    14e6:	00f41623          	sh	a5,12(s0)
    14ea:	01242823          	sw	s2,16(s0)
    14ee:	c844                	sw	s1,20(s0)
    14f0:	994e                	add	s2,s2,s3
    14f2:	413484b3          	sub	s1,s1,s3
    14f6:	01242023          	sw	s2,0(s0)
    14fa:	c404                	sw	s1,8(s0)
    14fc:	8952                	mv	s2,s4
    14fe:	012a7363          	bgeu	s4,s2,1504 <__ssputs_r+0xb6>
    1502:	8952                	mv	s2,s4
    1504:	4008                	lw	a0,0(s0)
    1506:	864a                	mv	a2,s2
    1508:	85da                	mv	a1,s6
    150a:	2d51                	jal	1b9e <memmove>
    150c:	441c                	lw	a5,8(s0)
    150e:	4501                	li	a0,0
    1510:	412787b3          	sub	a5,a5,s2
    1514:	c41c                	sw	a5,8(s0)
    1516:	401c                	lw	a5,0(s0)
    1518:	993e                	add	s2,s2,a5
    151a:	01242023          	sw	s2,0(s0)
    151e:	b74d                	j	14c0 <__ssputs_r+0x72>
    1520:	8626                	mv	a2,s1
    1522:	8556                	mv	a0,s5
    1524:	25e1                	jal	1bec <_realloc_r>
    1526:	892a                	mv	s2,a0
    1528:	f169                	bnez	a0,14ea <__ssputs_r+0x9c>
    152a:	480c                	lw	a1,16(s0)
    152c:	8556                	mv	a0,s5
    152e:	3345                	jal	12ce <_free_r>
    1530:	bfb5                	j	14ac <__ssputs_r+0x5e>

00001532 <_svfiprintf_r>:
_svfprintf_r():
    1532:	00c5d783          	lhu	a5,12(a1)
    1536:	7171                	addi	sp,sp,-176
    1538:	d326                	sw	s1,164(sp)
    153a:	d14a                	sw	s2,160(sp)
    153c:	cf4e                	sw	s3,156(sp)
    153e:	d706                	sw	ra,172(sp)
    1540:	d522                	sw	s0,168(sp)
    1542:	cd52                	sw	s4,152(sp)
    1544:	cb56                	sw	s5,148(sp)
    1546:	c95a                	sw	s6,144(sp)
    1548:	c75e                	sw	s7,140(sp)
    154a:	c562                	sw	s8,136(sp)
    154c:	c366                	sw	s9,132(sp)
    154e:	0807f793          	andi	a5,a5,128
    1552:	89aa                	mv	s3,a0
    1554:	892e                	mv	s2,a1
    1556:	84b2                	mv	s1,a2
    1558:	c3b1                	beqz	a5,159c <_svfiprintf_r+0x6a>
    155a:	499c                	lw	a5,16(a1)
    155c:	e3a1                	bnez	a5,159c <_svfiprintf_r+0x6a>
    155e:	04000593          	li	a1,64
    1562:	c636                	sw	a3,12(sp)
    1564:	3d09                	jal	1376 <_malloc_r>
    1566:	00a92023          	sw	a0,0(s2)
    156a:	00a92823          	sw	a0,16(s2)
    156e:	46b2                	lw	a3,12(sp)
    1570:	e115                	bnez	a0,1594 <_svfiprintf_r+0x62>
    1572:	47b1                	li	a5,12
    1574:	00f9a023          	sw	a5,0(s3)
    1578:	557d                	li	a0,-1
    157a:	50ba                	lw	ra,172(sp)
    157c:	542a                	lw	s0,168(sp)
    157e:	549a                	lw	s1,164(sp)
    1580:	590a                	lw	s2,160(sp)
    1582:	49fa                	lw	s3,156(sp)
    1584:	4a6a                	lw	s4,152(sp)
    1586:	4ada                	lw	s5,148(sp)
    1588:	4b4a                	lw	s6,144(sp)
    158a:	4bba                	lw	s7,140(sp)
    158c:	4c2a                	lw	s8,136(sp)
    158e:	4c9a                	lw	s9,132(sp)
    1590:	614d                	addi	sp,sp,176
    1592:	8082                	ret
    1594:	04000793          	li	a5,64
    1598:	00f92a23          	sw	a5,20(s2)
    159c:	02000793          	li	a5,32
    15a0:	02f10ca3          	sb	a5,57(sp)
    15a4:	03000793          	li	a5,48
    15a8:	da02                	sw	zero,52(sp)
    15aa:	02f10d23          	sb	a5,58(sp)
    15ae:	ce36                	sw	a3,28(sp)
    15b0:	02500b93          	li	s7,37
    15b4:	00000a97          	auipc	s5,0x0
    15b8:	7f0a8a93          	addi	s5,s5,2032 # 1da4 <__sf_fake_stdout+0x20>
    15bc:	4c05                	li	s8,1
    15be:	4b29                	li	s6,10
    15c0:	8426                	mv	s0,s1
    15c2:	00044783          	lbu	a5,0(s0)
    15c6:	c399                	beqz	a5,15cc <_svfiprintf_r+0x9a>
    15c8:	09779b63          	bne	a5,s7,165e <_svfiprintf_r+0x12c>
    15cc:	40940cb3          	sub	s9,s0,s1
    15d0:	000c8d63          	beqz	s9,15ea <_svfiprintf_r+0xb8>
    15d4:	86e6                	mv	a3,s9
    15d6:	8626                	mv	a2,s1
    15d8:	85ca                	mv	a1,s2
    15da:	854e                	mv	a0,s3
    15dc:	3d8d                	jal	144e <__ssputs_r>
    15de:	57fd                	li	a5,-1
    15e0:	1af50163          	beq	a0,a5,1782 <_svfiprintf_r+0x250>
    15e4:	56d2                	lw	a3,52(sp)
    15e6:	96e6                	add	a3,a3,s9
    15e8:	da36                	sw	a3,52(sp)
    15ea:	00044783          	lbu	a5,0(s0)
    15ee:	18078a63          	beqz	a5,1782 <_svfiprintf_r+0x250>
    15f2:	57fd                	li	a5,-1
    15f4:	00140493          	addi	s1,s0,1
    15f8:	d002                	sw	zero,32(sp)
    15fa:	d602                	sw	zero,44(sp)
    15fc:	d23e                	sw	a5,36(sp)
    15fe:	d402                	sw	zero,40(sp)
    1600:	060101a3          	sb	zero,99(sp)
    1604:	dc82                	sw	zero,120(sp)
    1606:	0004c583          	lbu	a1,0(s1)
    160a:	4615                	li	a2,5
    160c:	8556                	mv	a0,s5
    160e:	2b9d                	jal	1b84 <memchr>
    1610:	00148413          	addi	s0,s1,1
    1614:	5782                	lw	a5,32(sp)
    1616:	e531                	bnez	a0,1662 <_svfiprintf_r+0x130>
    1618:	0107f713          	andi	a4,a5,16
    161c:	c709                	beqz	a4,1626 <_svfiprintf_r+0xf4>
    161e:	02000713          	li	a4,32
    1622:	06e101a3          	sb	a4,99(sp)
    1626:	0087f713          	andi	a4,a5,8
    162a:	c709                	beqz	a4,1634 <_svfiprintf_r+0x102>
    162c:	02b00713          	li	a4,43
    1630:	06e101a3          	sb	a4,99(sp)
    1634:	0004c683          	lbu	a3,0(s1)
    1638:	02a00713          	li	a4,42
    163c:	02e68b63          	beq	a3,a4,1672 <_svfiprintf_r+0x140>
    1640:	57b2                	lw	a5,44(sp)
    1642:	8426                	mv	s0,s1
    1644:	4681                	li	a3,0
    1646:	4625                	li	a2,9
    1648:	00044703          	lbu	a4,0(s0)
    164c:	00140593          	addi	a1,s0,1
    1650:	fd070713          	addi	a4,a4,-48
    1654:	06e67463          	bgeu	a2,a4,16bc <_svfiprintf_r+0x18a>
    1658:	c68d                	beqz	a3,1682 <_svfiprintf_r+0x150>
    165a:	d63e                	sw	a5,44(sp)
    165c:	a01d                	j	1682 <_svfiprintf_r+0x150>
    165e:	0405                	addi	s0,s0,1
    1660:	b78d                	j	15c2 <_svfiprintf_r+0x90>
    1662:	41550533          	sub	a0,a0,s5
    1666:	00ac1533          	sll	a0,s8,a0
    166a:	8fc9                	or	a5,a5,a0
    166c:	d03e                	sw	a5,32(sp)
    166e:	84a2                	mv	s1,s0
    1670:	bf59                	j	1606 <_svfiprintf_r+0xd4>
    1672:	4772                	lw	a4,28(sp)
    1674:	00470693          	addi	a3,a4,4
    1678:	4318                	lw	a4,0(a4)
    167a:	ce36                	sw	a3,28(sp)
    167c:	02074963          	bltz	a4,16ae <_svfiprintf_r+0x17c>
    1680:	d63a                	sw	a4,44(sp)
    1682:	00044703          	lbu	a4,0(s0)
    1686:	02e00793          	li	a5,46
    168a:	04f71f63          	bne	a4,a5,16e8 <_svfiprintf_r+0x1b6>
    168e:	00144703          	lbu	a4,1(s0)
    1692:	02a00793          	li	a5,42
    1696:	02f71b63          	bne	a4,a5,16cc <_svfiprintf_r+0x19a>
    169a:	47f2                	lw	a5,28(sp)
    169c:	0409                	addi	s0,s0,2
    169e:	00478713          	addi	a4,a5,4
    16a2:	439c                	lw	a5,0(a5)
    16a4:	ce3a                	sw	a4,28(sp)
    16a6:	0207c163          	bltz	a5,16c8 <_svfiprintf_r+0x196>
    16aa:	d23e                	sw	a5,36(sp)
    16ac:	a835                	j	16e8 <_svfiprintf_r+0x1b6>
    16ae:	40e00733          	neg	a4,a4
    16b2:	0027e793          	ori	a5,a5,2
    16b6:	d63a                	sw	a4,44(sp)
    16b8:	d03e                	sw	a5,32(sp)
    16ba:	b7e1                	j	1682 <_svfiprintf_r+0x150>
    16bc:	036787b3          	mul	a5,a5,s6
    16c0:	4685                	li	a3,1
    16c2:	842e                	mv	s0,a1
    16c4:	97ba                	add	a5,a5,a4
    16c6:	b749                	j	1648 <_svfiprintf_r+0x116>
    16c8:	57fd                	li	a5,-1
    16ca:	b7c5                	j	16aa <_svfiprintf_r+0x178>
    16cc:	0405                	addi	s0,s0,1
    16ce:	d202                	sw	zero,36(sp)
    16d0:	4681                	li	a3,0
    16d2:	4781                	li	a5,0
    16d4:	4625                	li	a2,9
    16d6:	00044703          	lbu	a4,0(s0)
    16da:	00140593          	addi	a1,s0,1
    16de:	fd070713          	addi	a4,a4,-48
    16e2:	06e67663          	bgeu	a2,a4,174e <_svfiprintf_r+0x21c>
    16e6:	f2f1                	bnez	a3,16aa <_svfiprintf_r+0x178>
    16e8:	00044583          	lbu	a1,0(s0)
    16ec:	460d                	li	a2,3
    16ee:	00000517          	auipc	a0,0x0
    16f2:	6be50513          	addi	a0,a0,1726 # 1dac <__sf_fake_stdout+0x28>
    16f6:	2179                	jal	1b84 <memchr>
    16f8:	cd11                	beqz	a0,1714 <_svfiprintf_r+0x1e2>
    16fa:	00000797          	auipc	a5,0x0
    16fe:	6b278793          	addi	a5,a5,1714 # 1dac <__sf_fake_stdout+0x28>
    1702:	8d1d                	sub	a0,a0,a5
    1704:	04000793          	li	a5,64
    1708:	00a797b3          	sll	a5,a5,a0
    170c:	5502                	lw	a0,32(sp)
    170e:	0405                	addi	s0,s0,1
    1710:	8d5d                	or	a0,a0,a5
    1712:	d02a                	sw	a0,32(sp)
    1714:	00044583          	lbu	a1,0(s0)
    1718:	4619                	li	a2,6
    171a:	00000517          	auipc	a0,0x0
    171e:	69650513          	addi	a0,a0,1686 # 1db0 <__sf_fake_stdout+0x2c>
    1722:	00140493          	addi	s1,s0,1
    1726:	02b10c23          	sb	a1,56(sp)
    172a:	29a9                	jal	1b84 <memchr>
    172c:	c525                	beqz	a0,1794 <_svfiprintf_r+0x262>
    172e:	fffff797          	auipc	a5,0xfffff
    1732:	8d278793          	addi	a5,a5,-1838 # 0 <_sinit>
    1736:	e795                	bnez	a5,1762 <_svfiprintf_r+0x230>
    1738:	5702                	lw	a4,32(sp)
    173a:	47f2                	lw	a5,28(sp)
    173c:	10077713          	andi	a4,a4,256
    1740:	cf09                	beqz	a4,175a <_svfiprintf_r+0x228>
    1742:	0791                	addi	a5,a5,4
    1744:	ce3e                	sw	a5,28(sp)
    1746:	57d2                	lw	a5,52(sp)
    1748:	97d2                	add	a5,a5,s4
    174a:	da3e                	sw	a5,52(sp)
    174c:	bd95                	j	15c0 <_svfiprintf_r+0x8e>
    174e:	036787b3          	mul	a5,a5,s6
    1752:	4685                	li	a3,1
    1754:	842e                	mv	s0,a1
    1756:	97ba                	add	a5,a5,a4
    1758:	bfbd                	j	16d6 <_svfiprintf_r+0x1a4>
    175a:	079d                	addi	a5,a5,7
    175c:	9be1                	andi	a5,a5,-8
    175e:	07a1                	addi	a5,a5,8
    1760:	b7d5                	j	1744 <_svfiprintf_r+0x212>
    1762:	0878                	addi	a4,sp,28
    1764:	00000697          	auipc	a3,0x0
    1768:	cea68693          	addi	a3,a3,-790 # 144e <__ssputs_r>
    176c:	864a                	mv	a2,s2
    176e:	100c                	addi	a1,sp,32
    1770:	854e                	mv	a0,s3
    1772:	00000097          	auipc	ra,0x0
    1776:	000000e7          	jalr	zero # 0 <_sinit>
    177a:	57fd                	li	a5,-1
    177c:	8a2a                	mv	s4,a0
    177e:	fcf514e3          	bne	a0,a5,1746 <_svfiprintf_r+0x214>
    1782:	00c95783          	lhu	a5,12(s2)
    1786:	557d                	li	a0,-1
    1788:	0407f793          	andi	a5,a5,64
    178c:	de0797e3          	bnez	a5,157a <_svfiprintf_r+0x48>
    1790:	5552                	lw	a0,52(sp)
    1792:	b3e5                	j	157a <_svfiprintf_r+0x48>
    1794:	0878                	addi	a4,sp,28
    1796:	00000697          	auipc	a3,0x0
    179a:	cb868693          	addi	a3,a3,-840 # 144e <__ssputs_r>
    179e:	864a                	mv	a2,s2
    17a0:	100c                	addi	a1,sp,32
    17a2:	854e                	mv	a0,s3
    17a4:	2a01                	jal	18b4 <_printf_i>
    17a6:	bfd1                	j	177a <_svfiprintf_r+0x248>

000017a8 <_printf_common>:
_printf_common():
    17a8:	7179                	addi	sp,sp,-48
    17aa:	ca56                	sw	s5,20(sp)
    17ac:	499c                	lw	a5,16(a1)
    17ae:	8aba                	mv	s5,a4
    17b0:	4598                	lw	a4,8(a1)
    17b2:	d422                	sw	s0,40(sp)
    17b4:	d226                	sw	s1,36(sp)
    17b6:	ce4e                	sw	s3,28(sp)
    17b8:	cc52                	sw	s4,24(sp)
    17ba:	d606                	sw	ra,44(sp)
    17bc:	d04a                	sw	s2,32(sp)
    17be:	c85a                	sw	s6,16(sp)
    17c0:	c65e                	sw	s7,12(sp)
    17c2:	89aa                	mv	s3,a0
    17c4:	842e                	mv	s0,a1
    17c6:	84b2                	mv	s1,a2
    17c8:	8a36                	mv	s4,a3
    17ca:	00e7d363          	bge	a5,a4,17d0 <_printf_common+0x28>
    17ce:	87ba                	mv	a5,a4
    17d0:	c09c                	sw	a5,0(s1)
    17d2:	04344703          	lbu	a4,67(s0)
    17d6:	c319                	beqz	a4,17dc <_printf_common+0x34>
    17d8:	0785                	addi	a5,a5,1
    17da:	c09c                	sw	a5,0(s1)
    17dc:	401c                	lw	a5,0(s0)
    17de:	0207f793          	andi	a5,a5,32
    17e2:	c781                	beqz	a5,17ea <_printf_common+0x42>
    17e4:	409c                	lw	a5,0(s1)
    17e6:	0789                	addi	a5,a5,2
    17e8:	c09c                	sw	a5,0(s1)
    17ea:	00042903          	lw	s2,0(s0)
    17ee:	00697913          	andi	s2,s2,6
    17f2:	00091a63          	bnez	s2,1806 <_printf_common+0x5e>
    17f6:	01940b13          	addi	s6,s0,25
    17fa:	5bfd                	li	s7,-1
    17fc:	445c                	lw	a5,12(s0)
    17fe:	4098                	lw	a4,0(s1)
    1800:	8f99                	sub	a5,a5,a4
    1802:	04f94c63          	blt	s2,a5,185a <_printf_common+0xb2>
    1806:	401c                	lw	a5,0(s0)
    1808:	04344683          	lbu	a3,67(s0)
    180c:	0207f793          	andi	a5,a5,32
    1810:	00d036b3          	snez	a3,a3
    1814:	eba5                	bnez	a5,1884 <_printf_common+0xdc>
    1816:	04340613          	addi	a2,s0,67
    181a:	85d2                	mv	a1,s4
    181c:	854e                	mv	a0,s3
    181e:	9a82                	jalr	s5
    1820:	57fd                	li	a5,-1
    1822:	04f50363          	beq	a0,a5,1868 <_printf_common+0xc0>
    1826:	401c                	lw	a5,0(s0)
    1828:	4611                	li	a2,4
    182a:	4098                	lw	a4,0(s1)
    182c:	8b99                	andi	a5,a5,6
    182e:	4454                	lw	a3,12(s0)
    1830:	4481                	li	s1,0
    1832:	00c79763          	bne	a5,a2,1840 <_printf_common+0x98>
    1836:	40e684b3          	sub	s1,a3,a4
    183a:	0004d363          	bgez	s1,1840 <_printf_common+0x98>
    183e:	4481                	li	s1,0
    1840:	441c                	lw	a5,8(s0)
    1842:	4818                	lw	a4,16(s0)
    1844:	00f75463          	bge	a4,a5,184c <_printf_common+0xa4>
    1848:	8f99                	sub	a5,a5,a4
    184a:	94be                	add	s1,s1,a5
    184c:	4901                	li	s2,0
    184e:	0469                	addi	s0,s0,26
    1850:	5b7d                	li	s6,-1
    1852:	05249863          	bne	s1,s2,18a2 <_printf_common+0xfa>
    1856:	4501                	li	a0,0
    1858:	a809                	j	186a <_printf_common+0xc2>
    185a:	4685                	li	a3,1
    185c:	865a                	mv	a2,s6
    185e:	85d2                	mv	a1,s4
    1860:	854e                	mv	a0,s3
    1862:	9a82                	jalr	s5
    1864:	01751e63          	bne	a0,s7,1880 <_printf_common+0xd8>
    1868:	557d                	li	a0,-1
    186a:	50b2                	lw	ra,44(sp)
    186c:	5422                	lw	s0,40(sp)
    186e:	5492                	lw	s1,36(sp)
    1870:	5902                	lw	s2,32(sp)
    1872:	49f2                	lw	s3,28(sp)
    1874:	4a62                	lw	s4,24(sp)
    1876:	4ad2                	lw	s5,20(sp)
    1878:	4b42                	lw	s6,16(sp)
    187a:	4bb2                	lw	s7,12(sp)
    187c:	6145                	addi	sp,sp,48
    187e:	8082                	ret
    1880:	0905                	addi	s2,s2,1
    1882:	bfad                	j	17fc <_printf_common+0x54>
    1884:	00d40733          	add	a4,s0,a3
    1888:	03000613          	li	a2,48
    188c:	04c701a3          	sb	a2,67(a4)
    1890:	04544703          	lbu	a4,69(s0)
    1894:	00168793          	addi	a5,a3,1
    1898:	97a2                	add	a5,a5,s0
    189a:	0689                	addi	a3,a3,2
    189c:	04e781a3          	sb	a4,67(a5)
    18a0:	bf9d                	j	1816 <_printf_common+0x6e>
    18a2:	4685                	li	a3,1
    18a4:	8622                	mv	a2,s0
    18a6:	85d2                	mv	a1,s4
    18a8:	854e                	mv	a0,s3
    18aa:	9a82                	jalr	s5
    18ac:	fb650ee3          	beq	a0,s6,1868 <_printf_common+0xc0>
    18b0:	0905                	addi	s2,s2,1
    18b2:	b745                	j	1852 <_printf_common+0xaa>

000018b4 <_printf_i>:
_printf_i():
    18b4:	7179                	addi	sp,sp,-48
    18b6:	d422                	sw	s0,40(sp)
    18b8:	d226                	sw	s1,36(sp)
    18ba:	d04a                	sw	s2,32(sp)
    18bc:	ce4e                	sw	s3,28(sp)
    18be:	d606                	sw	ra,44(sp)
    18c0:	cc52                	sw	s4,24(sp)
    18c2:	ca56                	sw	s5,20(sp)
    18c4:	c85a                	sw	s6,16(sp)
    18c6:	89b6                	mv	s3,a3
    18c8:	0185c683          	lbu	a3,24(a1)
    18cc:	06900793          	li	a5,105
    18d0:	8932                	mv	s2,a2
    18d2:	84aa                	mv	s1,a0
    18d4:	842e                	mv	s0,a1
    18d6:	04358613          	addi	a2,a1,67
    18da:	02f68d63          	beq	a3,a5,1914 <_printf_i+0x60>
    18de:	06d7e263          	bltu	a5,a3,1942 <_printf_i+0x8e>
    18e2:	05800793          	li	a5,88
    18e6:	18f68763          	beq	a3,a5,1a74 <_printf_i+0x1c0>
    18ea:	00d7ed63          	bltu	a5,a3,1904 <_printf_i+0x50>
    18ee:	22068063          	beqz	a3,1b0e <_printf_i+0x25a>
    18f2:	04300793          	li	a5,67
    18f6:	0af68e63          	beq	a3,a5,19b2 <_printf_i+0xfe>
    18fa:	04240a93          	addi	s5,s0,66
    18fe:	04d40123          	sb	a3,66(s0)
    1902:	a0c9                	j	19c4 <_printf_i+0x110>
    1904:	06300793          	li	a5,99
    1908:	0af68563          	beq	a3,a5,19b2 <_printf_i+0xfe>
    190c:	06400793          	li	a5,100
    1910:	fef695e3          	bne	a3,a5,18fa <_printf_i+0x46>
    1914:	401c                	lw	a5,0(s0)
    1916:	4308                	lw	a0,0(a4)
    1918:	0807f693          	andi	a3,a5,128
    191c:	00450593          	addi	a1,a0,4
    1920:	c6c5                	beqz	a3,19c8 <_printf_i+0x114>
    1922:	411c                	lw	a5,0(a0)
    1924:	c30c                	sw	a1,0(a4)
    1926:	0007d863          	bgez	a5,1936 <_printf_i+0x82>
    192a:	02d00713          	li	a4,45
    192e:	40f007b3          	neg	a5,a5
    1932:	04e401a3          	sb	a4,67(s0)
    1936:	00000697          	auipc	a3,0x0
    193a:	48268693          	addi	a3,a3,1154 # 1db8 <__sf_fake_stdout+0x34>
    193e:	4729                	li	a4,10
    1940:	a86d                	j	19fa <_printf_i+0x146>
    1942:	07000793          	li	a5,112
    1946:	16f68363          	beq	a3,a5,1aac <_printf_i+0x1f8>
    194a:	02d7e563          	bltu	a5,a3,1974 <_printf_i+0xc0>
    194e:	06e00793          	li	a5,110
    1952:	18f68a63          	beq	a3,a5,1ae6 <_printf_i+0x232>
    1956:	06f00793          	li	a5,111
    195a:	faf690e3          	bne	a3,a5,18fa <_printf_i+0x46>
    195e:	400c                	lw	a1,0(s0)
    1960:	431c                	lw	a5,0(a4)
    1962:	0805f813          	andi	a6,a1,128
    1966:	00478513          	addi	a0,a5,4
    196a:	06080763          	beqz	a6,19d8 <_printf_i+0x124>
    196e:	c308                	sw	a0,0(a4)
    1970:	439c                	lw	a5,0(a5)
    1972:	a88d                	j	19e4 <_printf_i+0x130>
    1974:	07500793          	li	a5,117
    1978:	fef683e3          	beq	a3,a5,195e <_printf_i+0xaa>
    197c:	07800793          	li	a5,120
    1980:	12f68a63          	beq	a3,a5,1ab4 <_printf_i+0x200>
    1984:	07300793          	li	a5,115
    1988:	f6f699e3          	bne	a3,a5,18fa <_printf_i+0x46>
    198c:	431c                	lw	a5,0(a4)
    198e:	41d0                	lw	a2,4(a1)
    1990:	4581                	li	a1,0
    1992:	00478693          	addi	a3,a5,4
    1996:	c314                	sw	a3,0(a4)
    1998:	0007aa83          	lw	s5,0(a5)
    199c:	8556                	mv	a0,s5
    199e:	22dd                	jal	1b84 <memchr>
    19a0:	c501                	beqz	a0,19a8 <_printf_i+0xf4>
    19a2:	41550533          	sub	a0,a0,s5
    19a6:	c048                	sw	a0,4(s0)
    19a8:	405c                	lw	a5,4(s0)
    19aa:	c81c                	sw	a5,16(s0)
    19ac:	040401a3          	sb	zero,67(s0)
    19b0:	a871                	j	1a4c <_printf_i+0x198>
    19b2:	431c                	lw	a5,0(a4)
    19b4:	04240a93          	addi	s5,s0,66
    19b8:	00478693          	addi	a3,a5,4
    19bc:	439c                	lw	a5,0(a5)
    19be:	c314                	sw	a3,0(a4)
    19c0:	04f40123          	sb	a5,66(s0)
    19c4:	4785                	li	a5,1
    19c6:	b7d5                	j	19aa <_printf_i+0xf6>
    19c8:	0407f693          	andi	a3,a5,64
    19cc:	411c                	lw	a5,0(a0)
    19ce:	c30c                	sw	a1,0(a4)
    19d0:	dab9                	beqz	a3,1926 <_printf_i+0x72>
    19d2:	07c2                	slli	a5,a5,0x10
    19d4:	87c1                	srai	a5,a5,0x10
    19d6:	bf81                	j	1926 <_printf_i+0x72>
    19d8:	0405f593          	andi	a1,a1,64
    19dc:	c308                	sw	a0,0(a4)
    19de:	d9c9                	beqz	a1,1970 <_printf_i+0xbc>
    19e0:	0007d783          	lhu	a5,0(a5)
    19e4:	06f00713          	li	a4,111
    19e8:	0ee68763          	beq	a3,a4,1ad6 <_printf_i+0x222>
    19ec:	00000697          	auipc	a3,0x0
    19f0:	3cc68693          	addi	a3,a3,972 # 1db8 <__sf_fake_stdout+0x34>
    19f4:	4729                	li	a4,10
    19f6:	040401a3          	sb	zero,67(s0)
    19fa:	404c                	lw	a1,4(s0)
    19fc:	c40c                	sw	a1,8(s0)
    19fe:	0005c563          	bltz	a1,1a08 <_printf_i+0x154>
    1a02:	4008                	lw	a0,0(s0)
    1a04:	996d                	andi	a0,a0,-5
    1a06:	c008                	sw	a0,0(s0)
    1a08:	e399                	bnez	a5,1a0e <_printf_i+0x15a>
    1a0a:	8ab2                	mv	s5,a2
    1a0c:	cd91                	beqz	a1,1a28 <_printf_i+0x174>
    1a0e:	8ab2                	mv	s5,a2
    1a10:	02e7f5b3          	remu	a1,a5,a4
    1a14:	1afd                	addi	s5,s5,-1
    1a16:	95b6                	add	a1,a1,a3
    1a18:	0005c583          	lbu	a1,0(a1)
    1a1c:	00ba8023          	sb	a1,0(s5)
    1a20:	02e7d5b3          	divu	a1,a5,a4
    1a24:	0ae7ff63          	bgeu	a5,a4,1ae2 <_printf_i+0x22e>
    1a28:	47a1                	li	a5,8
    1a2a:	00f71e63          	bne	a4,a5,1a46 <_printf_i+0x192>
    1a2e:	401c                	lw	a5,0(s0)
    1a30:	8b85                	andi	a5,a5,1
    1a32:	cb91                	beqz	a5,1a46 <_printf_i+0x192>
    1a34:	4058                	lw	a4,4(s0)
    1a36:	481c                	lw	a5,16(s0)
    1a38:	00e7c763          	blt	a5,a4,1a46 <_printf_i+0x192>
    1a3c:	03000793          	li	a5,48
    1a40:	fefa8fa3          	sb	a5,-1(s5)
    1a44:	1afd                	addi	s5,s5,-1
    1a46:	41560633          	sub	a2,a2,s5
    1a4a:	c810                	sw	a2,16(s0)
    1a4c:	874e                	mv	a4,s3
    1a4e:	86ca                	mv	a3,s2
    1a50:	0070                	addi	a2,sp,12
    1a52:	85a2                	mv	a1,s0
    1a54:	8526                	mv	a0,s1
    1a56:	3b89                	jal	17a8 <_printf_common>
    1a58:	5a7d                	li	s4,-1
    1a5a:	0b451e63          	bne	a0,s4,1b16 <_printf_i+0x262>
    1a5e:	557d                	li	a0,-1
    1a60:	50b2                	lw	ra,44(sp)
    1a62:	5422                	lw	s0,40(sp)
    1a64:	5492                	lw	s1,36(sp)
    1a66:	5902                	lw	s2,32(sp)
    1a68:	49f2                	lw	s3,28(sp)
    1a6a:	4a62                	lw	s4,24(sp)
    1a6c:	4ad2                	lw	s5,20(sp)
    1a6e:	4b42                	lw	s6,16(sp)
    1a70:	6145                	addi	sp,sp,48
    1a72:	8082                	ret
    1a74:	04d582a3          	sb	a3,69(a1)
    1a78:	00000697          	auipc	a3,0x0
    1a7c:	34068693          	addi	a3,a3,832 # 1db8 <__sf_fake_stdout+0x34>
    1a80:	400c                	lw	a1,0(s0)
    1a82:	4308                	lw	a0,0(a4)
    1a84:	0805f813          	andi	a6,a1,128
    1a88:	411c                	lw	a5,0(a0)
    1a8a:	0511                	addi	a0,a0,4
    1a8c:	02080d63          	beqz	a6,1ac6 <_printf_i+0x212>
    1a90:	c308                	sw	a0,0(a4)
    1a92:	0015f713          	andi	a4,a1,1
    1a96:	c701                	beqz	a4,1a9e <_printf_i+0x1ea>
    1a98:	0205e593          	ori	a1,a1,32
    1a9c:	c00c                	sw	a1,0(s0)
    1a9e:	4741                	li	a4,16
    1aa0:	fbb9                	bnez	a5,19f6 <_printf_i+0x142>
    1aa2:	400c                	lw	a1,0(s0)
    1aa4:	fdf5f593          	andi	a1,a1,-33
    1aa8:	c00c                	sw	a1,0(s0)
    1aaa:	b7b1                	j	19f6 <_printf_i+0x142>
    1aac:	419c                	lw	a5,0(a1)
    1aae:	0207e793          	ori	a5,a5,32
    1ab2:	c19c                	sw	a5,0(a1)
    1ab4:	07800793          	li	a5,120
    1ab8:	04f402a3          	sb	a5,69(s0)
    1abc:	00000697          	auipc	a3,0x0
    1ac0:	31068693          	addi	a3,a3,784 # 1dcc <__sf_fake_stdout+0x48>
    1ac4:	bf75                	j	1a80 <_printf_i+0x1cc>
    1ac6:	0405f813          	andi	a6,a1,64
    1aca:	c308                	sw	a0,0(a4)
    1acc:	fc0803e3          	beqz	a6,1a92 <_printf_i+0x1de>
    1ad0:	07c2                	slli	a5,a5,0x10
    1ad2:	83c1                	srli	a5,a5,0x10
    1ad4:	bf7d                	j	1a92 <_printf_i+0x1de>
    1ad6:	00000697          	auipc	a3,0x0
    1ada:	2e268693          	addi	a3,a3,738 # 1db8 <__sf_fake_stdout+0x34>
    1ade:	4721                	li	a4,8
    1ae0:	bf19                	j	19f6 <_printf_i+0x142>
    1ae2:	87ae                	mv	a5,a1
    1ae4:	b735                	j	1a10 <_printf_i+0x15c>
    1ae6:	4194                	lw	a3,0(a1)
    1ae8:	431c                	lw	a5,0(a4)
    1aea:	49cc                	lw	a1,20(a1)
    1aec:	0806f813          	andi	a6,a3,128
    1af0:	00478513          	addi	a0,a5,4
    1af4:	00080663          	beqz	a6,1b00 <_printf_i+0x24c>
    1af8:	c308                	sw	a0,0(a4)
    1afa:	439c                	lw	a5,0(a5)
    1afc:	c38c                	sw	a1,0(a5)
    1afe:	a801                	j	1b0e <_printf_i+0x25a>
    1b00:	c308                	sw	a0,0(a4)
    1b02:	0406f693          	andi	a3,a3,64
    1b06:	439c                	lw	a5,0(a5)
    1b08:	daf5                	beqz	a3,1afc <_printf_i+0x248>
    1b0a:	00b79023          	sh	a1,0(a5)
    1b0e:	00042823          	sw	zero,16(s0)
    1b12:	8ab2                	mv	s5,a2
    1b14:	bf25                	j	1a4c <_printf_i+0x198>
    1b16:	4814                	lw	a3,16(s0)
    1b18:	8656                	mv	a2,s5
    1b1a:	85ca                	mv	a1,s2
    1b1c:	8526                	mv	a0,s1
    1b1e:	9982                	jalr	s3
    1b20:	f3450fe3          	beq	a0,s4,1a5e <_printf_i+0x1aa>
    1b24:	401c                	lw	a5,0(s0)
    1b26:	8b89                	andi	a5,a5,2
    1b28:	e78d                	bnez	a5,1b52 <_printf_i+0x29e>
    1b2a:	47b2                	lw	a5,12(sp)
    1b2c:	4448                	lw	a0,12(s0)
    1b2e:	f2f559e3          	bge	a0,a5,1a60 <_printf_i+0x1ac>
    1b32:	853e                	mv	a0,a5
    1b34:	b735                	j	1a60 <_printf_i+0x1ac>
    1b36:	4685                	li	a3,1
    1b38:	8656                	mv	a2,s5
    1b3a:	85ca                	mv	a1,s2
    1b3c:	8526                	mv	a0,s1
    1b3e:	9982                	jalr	s3
    1b40:	f1650fe3          	beq	a0,s6,1a5e <_printf_i+0x1aa>
    1b44:	0a05                	addi	s4,s4,1
    1b46:	445c                	lw	a5,12(s0)
    1b48:	4732                	lw	a4,12(sp)
    1b4a:	8f99                	sub	a5,a5,a4
    1b4c:	fefa45e3          	blt	s4,a5,1b36 <_printf_i+0x282>
    1b50:	bfe9                	j	1b2a <_printf_i+0x276>
    1b52:	4a01                	li	s4,0
    1b54:	01940a93          	addi	s5,s0,25
    1b58:	5b7d                	li	s6,-1
    1b5a:	b7f5                	j	1b46 <_printf_i+0x292>

00001b5c <_sbrk_r>:
_sbrk_r():
    1b5c:	1141                	addi	sp,sp,-16
    1b5e:	c422                	sw	s0,8(sp)
    1b60:	842a                	mv	s0,a0
    1b62:	852e                	mv	a0,a1
    1b64:	d401a823          	sw	zero,-688(gp) # 20000e38 <errno>
    1b68:	c606                	sw	ra,12(sp)
    1b6a:	20fd                	jal	1c58 <_sbrk>
    1b6c:	57fd                	li	a5,-1
    1b6e:	00f51763          	bne	a0,a5,1b7c <_sbrk_r+0x20>
    1b72:	d5018793          	addi	a5,gp,-688 # 20000e38 <errno>
    1b76:	439c                	lw	a5,0(a5)
    1b78:	c391                	beqz	a5,1b7c <_sbrk_r+0x20>
    1b7a:	c01c                	sw	a5,0(s0)
    1b7c:	40b2                	lw	ra,12(sp)
    1b7e:	4422                	lw	s0,8(sp)
    1b80:	0141                	addi	sp,sp,16
    1b82:	8082                	ret

00001b84 <memchr>:
memchr():
    1b84:	0ff5f593          	andi	a1,a1,255
    1b88:	962a                	add	a2,a2,a0
    1b8a:	00c51463          	bne	a0,a2,1b92 <memchr+0xe>
    1b8e:	4501                	li	a0,0
    1b90:	8082                	ret
    1b92:	00054783          	lbu	a5,0(a0)
    1b96:	feb78de3          	beq	a5,a1,1b90 <memchr+0xc>
    1b9a:	0505                	addi	a0,a0,1
    1b9c:	b7fd                	j	1b8a <memchr+0x6>

00001b9e <memmove>:
memmove():
    1b9e:	04a5f363          	bgeu	a1,a0,1be4 <memmove+0x46>
    1ba2:	00c586b3          	add	a3,a1,a2
    1ba6:	02d57f63          	bgeu	a0,a3,1be4 <memmove+0x46>
    1baa:	fff64593          	not	a1,a2
    1bae:	4781                	li	a5,0
    1bb0:	17fd                	addi	a5,a5,-1
    1bb2:	00f59363          	bne	a1,a5,1bb8 <memmove+0x1a>
    1bb6:	8082                	ret
    1bb8:	00f68733          	add	a4,a3,a5
    1bbc:	00074803          	lbu	a6,0(a4)
    1bc0:	00c78733          	add	a4,a5,a2
    1bc4:	972a                	add	a4,a4,a0
    1bc6:	01070023          	sb	a6,0(a4)
    1bca:	b7dd                	j	1bb0 <memmove+0x12>
    1bcc:	00f58733          	add	a4,a1,a5
    1bd0:	00074683          	lbu	a3,0(a4)
    1bd4:	00f50733          	add	a4,a0,a5
    1bd8:	0785                	addi	a5,a5,1
    1bda:	00d70023          	sb	a3,0(a4)
    1bde:	fef617e3          	bne	a2,a5,1bcc <memmove+0x2e>
    1be2:	8082                	ret
    1be4:	4781                	li	a5,0
    1be6:	bfe5                	j	1bde <memmove+0x40>

00001be8 <__malloc_lock>:
__malloc_lock():
    1be8:	8082                	ret

00001bea <__malloc_unlock>:
__malloc_unlock():
    1bea:	8082                	ret

00001bec <_realloc_r>:
_realloc_r():
    1bec:	e581                	bnez	a1,1bf4 <_realloc_r+0x8>
    1bee:	85b2                	mv	a1,a2
    1bf0:	f86ff06f          	j	1376 <_malloc_r>
    1bf4:	1101                	addi	sp,sp,-32
    1bf6:	cc22                	sw	s0,24(sp)
    1bf8:	ce06                	sw	ra,28(sp)
    1bfa:	ca26                	sw	s1,20(sp)
    1bfc:	c84a                	sw	s2,16(sp)
    1bfe:	c64e                	sw	s3,12(sp)
    1c00:	8432                	mv	s0,a2
    1c02:	ee01                	bnez	a2,1c1a <_realloc_r+0x2e>
    1c04:	ecaff0ef          	jal	ra,12ce <_free_r>
    1c08:	4901                	li	s2,0
    1c0a:	40f2                	lw	ra,28(sp)
    1c0c:	4462                	lw	s0,24(sp)
    1c0e:	854a                	mv	a0,s2
    1c10:	44d2                	lw	s1,20(sp)
    1c12:	4942                	lw	s2,16(sp)
    1c14:	49b2                	lw	s3,12(sp)
    1c16:	6105                	addi	sp,sp,32
    1c18:	8082                	ret
    1c1a:	84ae                	mv	s1,a1
    1c1c:	89aa                	mv	s3,a0
    1c1e:	201d                	jal	1c44 <_malloc_usable_size_r>
    1c20:	8926                	mv	s2,s1
    1c22:	fe8574e3          	bgeu	a0,s0,1c0a <_realloc_r+0x1e>
    1c26:	85a2                	mv	a1,s0
    1c28:	854e                	mv	a0,s3
    1c2a:	f4cff0ef          	jal	ra,1376 <_malloc_r>
    1c2e:	892a                	mv	s2,a0
    1c30:	dd69                	beqz	a0,1c0a <_realloc_r+0x1e>
    1c32:	85a6                	mv	a1,s1
    1c34:	8622                	mv	a2,s0
    1c36:	d5eff0ef          	jal	ra,1194 <memcpy>
    1c3a:	85a6                	mv	a1,s1
    1c3c:	854e                	mv	a0,s3
    1c3e:	e90ff0ef          	jal	ra,12ce <_free_r>
    1c42:	b7e1                	j	1c0a <_realloc_r+0x1e>

00001c44 <_malloc_usable_size_r>:
_malloc_usable_size_r():
    1c44:	ffc5a783          	lw	a5,-4(a1)
    1c48:	ffc78513          	addi	a0,a5,-4
    1c4c:	0007d563          	bgez	a5,1c56 <_malloc_usable_size_r+0x12>
    1c50:	95aa                	add	a1,a1,a0
    1c52:	419c                	lw	a5,0(a1)
    1c54:	953e                	add	a0,a0,a5
    1c56:	8082                	ret

00001c58 <_sbrk>:
_sbrk():
    1c58:	81818793          	addi	a5,gp,-2024 # 20000900 <heap_end.1518>
    1c5c:	439c                	lw	a5,0(a5)
    1c5e:	c791                	beqz	a5,1c6a <_sbrk+0x12>
    1c60:	953e                	add	a0,a0,a5
    1c62:	80a1ac23          	sw	a0,-2024(gp) # 20000900 <heap_end.1518>
    1c66:	853e                	mv	a0,a5
    1c68:	8082                	ret
    1c6a:	d5418793          	addi	a5,gp,-684 # 20000e3c <_ebss>
    1c6e:	953e                	add	a0,a0,a5
    1c70:	80a1ac23          	sw	a0,-2024(gp) # 20000900 <heap_end.1518>
    1c74:	853e                	mv	a0,a5
    1c76:	8082                	ret
    1c78:	5441                	li	s0,-16
    1c7a:	525f 5345 4f50      	0x4f505345525f
    1c80:	3a4e                	fld	fs4,240(sp)
    1c82:	0000                	unimp
    1c84:	5441                	li	s0,-16
    1c86:	3045                	jal	1526 <__ssputs_r+0xd8>
    1c88:	0a0d                	addi	s4,s4,3
    1c8a:	0000                	unimp
    1c8c:	433e2d53          	0x433e2d53
    1c90:	003a                	c.slli	zero,0xe
    1c92:	0000                	unimp
    1c94:	7369                	lui	t1,0xffffa
    1c96:	3436                	fld	fs0,360(sp)
    1c98:	7335                	lui	t1,0xfffed
    1c9a:	7265                	lui	tp,0xffff9
    1c9c:	6576                	flw	fa0,92(sp)
    1c9e:	0d72                	slli	s10,s10,0x1c
    1ca0:	000a                	c.slli	zero,0x2
    1ca2:	0000                	unimp
    1ca4:	7369                	lui	t1,0xffffa
    1ca6:	5441                	li	s0,-16
    1ca8:	76726573          	csrrsi	a0,0x767,4
    1cac:	7265                	lui	tp,0xffff9
    1cae:	0a0d                	addi	s4,s4,3
    1cb0:	0000                	unimp
    1cb2:	0000                	unimp
    1cb4:	4d3e2d43          	0x4d3e2d43
    1cb8:	003a                	c.slli	zero,0xe
    1cba:	0000                	unimp
    1cbc:	6f6d                	lui	t5,0x1b
    1cbe:	6564                	flw	fs1,76(a0)
    1cc0:	5f6d                	li	t5,-5
    1cc2:	6572                	flw	fa0,28(sp)
    1cc4:	6e6f7073          	csrci	0x6e6,30
    1cc8:	5f65                	li	t5,-7
    1cca:	736d                	lui	t1,0xffffb
    1ccc:	0a0d3a67          	0xa0d3a67
    1cd0:	0000                	unimp
    1cd2:	0000                	unimp
    1cd4:	563e2d43          	fmadd.q	fs10,ft8,ft3,fa0,rdn
    1cd8:	003a                	c.slli	zero,0xe
    1cda:	0000                	unimp
    1cdc:	7369                	lui	t1,0xffffa
    1cde:	3436                	fld	fs0,360(sp)
    1ce0:	5335                	li	t1,-19
    1ce2:	7265                	lui	tp,0xffff9
    1ce4:	6169                	addi	sp,sp,208
    1ce6:	0d6c                	addi	a1,sp,668
    1ce8:	000a                	c.slli	zero,0x2
    1cea:	0000                	unimp
    1cec:	6568746f          	jal	s0,89342 <_data_lma+0x87562>
    1cf0:	5f72                	lw	t5,60(sp)
    1cf2:	736d                	lui	t1,0xffffb
    1cf4:	000a0d67          	jalr	s10,s4
    1cf8:	7369                	lui	t1,0xffffa
    1cfa:	5441                	li	s0,-16
    1cfc:	69726553          	0x69726553
    1d00:	6c61                	lui	s8,0x18
    1d02:	0a0d                	addi	s4,s4,3
    1d04:	0000                	unimp
    1d06:	0000                	unimp
    1d08:	5441                	li	s0,-16
    1d0a:	5349512b          	0x5349512b
    1d0e:	4e45                	li	t3,17
    1d10:	3d44                	fld	fs1,184(a0)
    1d12:	2c30                	fld	fa2,88(s0)
    1d14:	6425                	lui	s0,0x9
    1d16:	0a0d                	addi	s4,s4,3
    1d18:	0000                	unimp
    1d1a:	0000                	unimp
    1d1c:	4d3e2d43          	0x4d3e2d43
    1d20:	3e2d                	jal	185a <_printf_common+0xb2>
    1d22:	4f4e0053          	0x4f4e0053
    1d26:	3436                	fld	fs0,360(sp)
    1d28:	4135                	li	sp,13
    1d2a:	0d54                	addi	a3,sp,660
    1d2c:	000a                	c.slli	zero,0x2
    1d2e:	0000                	unimp
    1d30:	f1a6                	fsw	fs1,224(sp)
    1d32:	ffff                	0xffff
    1d34:	f1ce                	fsw	fs3,224(sp)
    1d36:	ffff                	0xffff
    1d38:	f1f6                	fsw	ft9,224(sp)
    1d3a:	ffff                	0xffff
    1d3c:	f20e                	fsw	ft3,36(sp)
    1d3e:	ffff                	0xffff
    1d40:	f228                	fsw	fa0,96(a2)
    1d42:	ffff                	0xffff

00001d44 <__sf_fake_stderr>:
	...

00001d64 <__sf_fake_stdin>:
	...

00001d84 <__sf_fake_stdout>:
	...
    1da4:	2d23 2b30 0020 0000 6c68 004c 6665 4567     #-0+ ...hlL.efgE
    1db4:	4746 0000 3130 3332 3534 3736 3938 4241     FG..0123456789AB
    1dc4:	4443 4645 0000 0000 3130 3332 3534 3736     CDEF....01234567
    1dd4:	3938 6261 6463 6665 0000 0000               89abcdef....
